
avr_sdk.elf:     file format elf32-avr

Sections:
Idx Name          Size      VMA       LMA       File off  Algn
  0 .data         00000000  00800100  00001aea  00001b7e  2**0
                  ALLOC, LOAD, DATA
  1 .text         000000ee  00000000  00000000  00000094  2**1
                  CONTENTS, ALLOC, LOAD, READONLY, CODE
  2 .comment      0000002f  00000000  00000000  00001b7e  2**0
                  CONTENTS, READONLY
  3 .debug_info   000005f4  00000000  00000000  00001bad  2**0
                  CONTENTS, READONLY, DEBUGGING
  4 .debug_abbrev 000005a2  00000000  00000000  000021a1  2**0
                  CONTENTS, READONLY, DEBUGGING
  5 .debug_line   0000001a  00000000  00000000  00002743  2**0
                  CONTENTS, READONLY, DEBUGGING
  6 .debug_str    00000208  00000000  00000000  0000275d  2**0
                  CONTENTS, READONLY, DEBUGGING
  7 .text         00000004  00001a54  00001a54  00001ae8  2**1
                  CONTENTS, ALLOC, LOAD, READONLY, CODE
  8 .note.gnu.avr.deviceinfo 00000040  00000000  00000000  00002968  2**2
                  CONTENTS, READONLY, DEBUGGING
  9 .text.init_usart 00000090  00000c62  00000c62  00000cf6  2**1
                  CONTENTS, ALLOC, LOAD, READONLY, CODE
 10 .text.usart_write_char 0000000e  0000198c  0000198c  00001a20  2**1
                  CONTENTS, ALLOC, LOAD, READONLY, CODE
 11 .text.usart_write_text 00000026  000016d2  000016d2  00001766  2**1
                  CONTENTS, ALLOC, LOAD, READONLY, CODE
 12 .text.usart_read_char 0000000e  0000199a  0000199a  00001a2e  2**1
                  CONTENTS, ALLOC, LOAD, READONLY, CODE
 13 .text.usart_data_available 0000000c  000019ee  000019ee  00001a82  2**1
                  CONTENTS, ALLOC, LOAD, READONLY, CODE
 14 .text.init_pwm 0000012e  0000023a  0000023a  000002ce  2**1
                  CONTENTS, ALLOC, LOAD, READONLY, CODE
 15 .text.pwm_change_duty 00000094  00000bce  00000bce  00000c62  2**1
                  CONTENTS, ALLOC, LOAD, READONLY, CODE
 16 .bss.top_value 00000002  0080018e  0080018e  00001b7e  2**0
                  ALLOC
 17 .bss.frequencey_config 00000002  00800190  00800190  00001b7e  2**0
                  ALLOC
 18 .text.init_timer1 0000001c  00001842  00001842  000018d6  2**1
                  CONTENTS, ALLOC, LOAD, READONLY, CODE
 19 .text.start_timer1 00000012  0000196a  0000196a  000019fe  2**1
                  CONTENTS, ALLOC, LOAD, READONLY, CODE
 20 .text.stop_timer1 0000000c  000019fa  000019fa  00001a8e  2**1
                  CONTENTS, ALLOC, LOAD, READONLY, CODE
 21 .text.get_timer1_counts 0000000e  000019a8  000019a8  00001a3c  2**1
                  CONTENTS, ALLOC, LOAD, READONLY, CODE
 22 .text.reset_timer1 0000000a  00001a2a  00001a2a  00001abe  2**1
                  CONTENTS, ALLOC, LOAD, READONLY, CODE
 23 .text.init_spi 000000a4  00000b2a  00000b2a  00000bbe  2**1
                  CONTENTS, ALLOC, LOAD, READONLY, CODE
 24 .text.spi_write 0000000c  00001a06  00001a06  00001a9a  2**1
                  CONTENTS, ALLOC, LOAD, READONLY, CODE
 25 .text.spi_read 0000000c  00001a12  00001a12  00001aa6  2**1
                  CONTENTS, ALLOC, LOAD, READONLY, CODE
 26 .text.init_i2c 0000001c  0000185e  0000185e  000018f2  2**1
                  CONTENTS, ALLOC, LOAD, READONLY, CODE
 27 .text.i2c_start 00000040  000013a0  000013a0  00001434  2**1
                  CONTENTS, ALLOC, LOAD, READONLY, CODE
 28 .text.i2c_write 00000022  0000171c  0000171c  000017b0  2**1
                  CONTENTS, ALLOC, LOAD, READONLY, CODE
 29 .text.i2c_read_ack 00000014  00001906  00001906  0000199a  2**1
                  CONTENTS, ALLOC, LOAD, READONLY, CODE
 30 .text.i2c_read_nack 00000014  0000191a  0000191a  000019ae  2**1
                  CONTENTS, ALLOC, LOAD, READONLY, CODE
 31 .text.i2c_transmit 00000072  00000ede  00000ede  00000f72  2**1
                  CONTENTS, ALLOC, LOAD, READONLY, CODE
 32 .text.i2c_receive 00000088  00000cf2  00000cf2  00000d86  2**1
                  CONTENTS, ALLOC, LOAD, READONLY, CODE
 33 .text.i2c_stop 00000008  00001a3e  00001a3e  00001ad2  2**1
                  CONTENTS, ALLOC, LOAD, READONLY, CODE
 34 .text.init_adc 00000034  00001554  00001554  000015e8  2**1
                  CONTENTS, ALLOC, LOAD, READONLY, CODE
 35 .text.adc_channel_read 0000002c  00001624  00001624  000016b8  2**1
                  CONTENTS, ALLOC, LOAD, READONLY, CODE
 36 .text.get_analog_value 00000040  000013e0  000013e0  00001474  2**1
                  CONTENTS, ALLOC, LOAD, READONLY, CODE
 37 .text.EEPROM_write 00000010  0000197c  0000197c  00001a10  2**1
                  CONTENTS, ALLOC, LOAD, READONLY, CODE
 38 .text.EEPROM_read 0000000e  000019b6  000019b6  00001a4a  2**1
                  CONTENTS, ALLOC, LOAD, READONLY, CODE
 39 .text.dio_channel_config 0000014c  000000ee  000000ee  00000182  2**1
                  CONTENTS, ALLOC, LOAD, READONLY, CODE
 40 .text.dio_channel_set 0000012c  00000368  00000368  000003fc  2**1
                  CONTENTS, ALLOC, LOAD, READONLY, CODE
 41 .text.dio_channel_read 00000044  000012d4  000012d4  00001368  2**1
                  CONTENTS, ALLOC, LOAD, READONLY, CODE
 42 .text.dio_port_config 00000018  00001894  00001894  00001928  2**1
                  CONTENTS, ALLOC, LOAD, READONLY, CODE
 43 .text.dio_port_set 00000018  000018ac  000018ac  00001940  2**1
                  CONTENTS, ALLOC, LOAD, READONLY, CODE
 44 .text.display_digit_private 00000058  000011a6  000011a6  0000123a  2**1
                  CONTENTS, ALLOC, LOAD, READONLY, CODE
 45 .text.init_seven_segment 0000003e  00001460  00001460  000014f4  2**1
                  CONTENTS, ALLOC, LOAD, READONLY, CODE
 46 .text.display_digit 00000014  0000192e  0000192e  000019c2  2**1
                  CONTENTS, ALLOC, LOAD, READONLY, CODE
 47 .rodata.segDataCathod 0000000a  0080017c  00001ad8  00001b6c  2**0
                  CONTENTS, ALLOC, LOAD, DATA
 48 .text.send_instruction_4bit 00000062  0000108a  0000108a  0000111e  2**1
                  CONTENTS, ALLOC, LOAD, READONLY, CODE
 49 .text.send_instruction_8bit 000000b8  0000090a  0000090a  0000099e  2**1
                  CONTENTS, ALLOC, LOAD, READONLY, CODE
 50 .text.send_data_8bit 000000b8  000009c2  000009c2  00000a56  2**1
                  CONTENTS, ALLOC, LOAD, READONLY, CODE
 51 .text.init_lcd 000000b0  00000a7a  00000a7a  00000b0e  2**1
                  CONTENTS, ALLOC, LOAD, READONLY, CODE
 52 .text.lcd_write_text 0000004a  000011fe  000011fe  00001292  2**1
                  CONTENTS, ALLOC, LOAD, READONLY, CODE
 53 .text.lcd_write_char 0000002a  000016a8  000016a8  0000173c  2**1
                  CONTENTS, ALLOC, LOAD, READONLY, CODE
 54 .text.lcd_write_char_cp 00000004  00001a58  00001a58  00001aec  2**1
                  CONTENTS, ALLOC, LOAD, READONLY, CODE
 55 .text.lcd_write_text_cp 0000002c  00001650  00001650  000016e4  2**1
                  CONTENTS, ALLOC, LOAD, READONLY, CODE
 56 .text.lcd_clear 00000014  00001942  00001942  000019d6  2**1
                  CONTENTS, ALLOC, LOAD, READONLY, CODE
 57 .text.output_scan_pattern 00000034  00001588  00001588  0000161c  2**1
                  CONTENTS, ALLOC, LOAD, READONLY, CODE
 58 .text.scan    0000006a  00000f50  00000f50  00000fe4  2**1
                  CONTENTS, ALLOC, LOAD, READONLY, CODE
 59 .text.init_keypad 00000046  00001248  00001248  000012dc  2**1
                  CONTENTS, ALLOC, LOAD, READONLY, CODE
 60 .text.get_key_clicked 00000024  000016f8  000016f8  0000178c  2**1
                  CONTENTS, ALLOC, LOAD, READONLY, CODE
 61 .text.get_key_pressed 0000001a  0000187a  0000187a  0000190e  2**1
                  CONTENTS, ALLOC, LOAD, READONLY, CODE
 62 .rodata.MAPPEDCHARS 00000010  0080016c  00001ac8  00001b5c  2**0
                  CONTENTS, ALLOC, LOAD, DATA
 63 .rodata.SCAN_PATTERN 00000005  00800186  00001ae2  00001b76  2**0
                  CONTENTS, ALLOC, LOAD, DATA
 64 .text.init_motors 00000040  00001420  00001420  000014b4  2**1
                  CONTENTS, ALLOC, LOAD, READONLY, CODE
 65 .text.motors_forward 00000020  00001782  00001782  00001816  2**1
                  CONTENTS, ALLOC, LOAD, READONLY, CODE
 66 .text.motors_backward 00000020  000017a2  000017a2  00001836  2**1
                  CONTENTS, ALLOC, LOAD, READONLY, CODE
 67 .text.motors_rotate_cw 00000020  000017c2  000017c2  00001856  2**1
                  CONTENTS, ALLOC, LOAD, READONLY, CODE
 68 .text.motors_rotate_acw 00000020  000017e2  000017e2  00001876  2**1
                  CONTENTS, ALLOC, LOAD, READONLY, CODE
 69 .text.motors_hold 00000020  00001802  00001802  00001896  2**1
                  CONTENTS, ALLOC, LOAD, READONLY, CODE
 70 .rodata       0000006c  00800100  00001a5c  00001af0  2**0
                  CONTENTS, ALLOC, LOAD, DATA
 71 .text.init_system 0000003e  0000149e  0000149e  00001532  2**1
                  CONTENTS, ALLOC, LOAD, READONLY, CODE
 72 .text.is_this_new_safe 00000014  00001956  00001956  000019ea  2**1
                  CONTENTS, ALLOC, LOAD, READONLY, CODE
 73 .text.enter_new_password_handeller 00000108  00000494  00000494  00000528  2**1
                  CONTENTS, ALLOC, LOAD, READONLY, CODE
 74 .text.load_save_configuration 0000005c  0000114a  0000114a  000011de  2**1
                  CONTENTS, ALLOC, LOAD, READONLY, CODE
 75 .text.scan_save_password 000000de  0000068c  0000068c  00000720  2**1
                  CONTENTS, ALLOC, LOAD, READONLY, CODE
 76 .text.key_safe_app 000000ce  0000083c  0000083c  000008d0  2**1
                  CONTENTS, ALLOC, LOAD, READONLY, CODE
 77 .text.is_passwords_equal 0000003c  000014dc  000014dc  00001570  2**1
                  CONTENTS, ALLOC, LOAD, READONLY, CODE
 78 .text.dac_output 0000002c  0000167c  0000167c  00001710  2**1
                  CONTENTS, ALLOC, LOAD, READONLY, CODE
 79 .text.external_dac 00000034  000015bc  000015bc  00001650  2**1
                  CONTENTS, ALLOC, LOAD, READONLY, CODE
 80 .rodata       00000003  0080018b  00001ae7  00001b7b  2**0
                  CONTENTS, ALLOC, LOAD, DATA
 81 .text.fire_app 00000068  00000fba  00000fba  0000104e  2**1
                  CONTENTS, ALLOC, LOAD, READONLY, CODE
 82 .text.test_iic 00000068  00001022  00001022  000010b6  2**1
                  CONTENTS, ALLOC, LOAD, READONLY, CODE
 83 .text.test_pwm 0000003c  00001518  00001518  000015ac  2**1
                  CONTENTS, ALLOC, LOAD, READONLY, CODE
 84 .text.robot_app 00000076  00000df4  00000df4  00000e88  2**1
                  CONTENTS, ALLOC, LOAD, READONLY, CODE
 85 .text.test_SPI_sending 00000046  0000128e  0000128e  00001322  2**1
                  CONTENTS, ALLOC, LOAD, READONLY, CODE
 86 .text.timer0_test 00000022  0000173e  0000173e  000017d2  2**1
                  CONTENTS, ALLOC, LOAD, READONLY, CODE
 87 .text.__vector_16 00000074  00000e6a  00000e6a  00000efe  2**1
                  CONTENTS, ALLOC, LOAD, READONLY, CODE
 88 .bss.counts   00000002  00800192  00800192  00001b7e  2**0
                  ALLOC
 89 .text.ultra_sonic_app 000000f0  0000059c  0000059c  00000630  2**1
                  CONTENTS, ALLOC, LOAD, READONLY, CODE
 90 .text.startup.main 0000000a  00001a34  00001a34  00001ac8  2**1
                  CONTENTS, ALLOC, LOAD, READONLY, CODE
 91 .text.libgcc.div 00000044  00001318  00001318  000013ac  2**1
                  CONTENTS, ALLOC, LOAD, READONLY, CODE
 92 .text.avrlibc.fplib 0000005e  000010ec  000010ec  00001180  2**1
                  CONTENTS, ALLOC, LOAD, READONLY, CODE
 93 .text.avrlibc.fplib 0000007a  00000d7a  00000d7a  00000e0e  2**1
                  CONTENTS, ALLOC, LOAD, READONLY, CODE
 94 .text.avrlibc.fplib 00000044  0000135c  0000135c  000013f0  2**1
                  CONTENTS, ALLOC, LOAD, READONLY, CODE
 95 .text.avrlibc.fplib 0000000e  000019c4  000019c4  00001a58  2**1
                  CONTENTS, ALLOC, LOAD, READONLY, CODE
 96 .text.avrlibc.fplib 00000008  00001a46  00001a46  00001ada  2**1
                  CONTENTS, ALLOC, LOAD, READONLY, CODE
 97 .text.avrlibc.fplib 000000d2  0000076a  0000076a  000007fe  2**1
                  CONTENTS, ALLOC, LOAD, READONLY, CODE
 98 .text.avrlibc.fplib 0000000c  00001a1e  00001a1e  00001ab2  2**1
                  CONTENTS, ALLOC, LOAD, READONLY, CODE
 99 .text.avrlibc.fplib 00000006  00001a4e  00001a4e  00001ae2  2**1
                  CONTENTS, ALLOC, LOAD, READONLY, CODE
100 .text.avrlibc.fplib 0000000e  000019d2  000019d2  00001a66  2**1
                  CONTENTS, ALLOC, LOAD, READONLY, CODE
101 .text.avrlibc.fplib 0000000e  000019e0  000019e0  00001a74  2**1
                  CONTENTS, ALLOC, LOAD, READONLY, CODE
102 .text.avrlibc.fplib 00000022  00001760  00001760  000017f4  2**1
                  CONTENTS, ALLOC, LOAD, READONLY, CODE
103 .text.avrlibc 00000016  000018c4  000018c4  00001958  2**1
                  CONTENTS, ALLOC, LOAD, READONLY, CODE
104 .text.avrlibc 00000016  000018da  000018da  0000196e  2**1
                  CONTENTS, ALLOC, LOAD, READONLY, CODE
105 .text.avrlibc 00000016  000018f0  000018f0  00001984  2**1
                  CONTENTS, ALLOC, LOAD, READONLY, CODE
106 .text.avrlibc 00000034  000015f0  000015f0  00001684  2**1
                  CONTENTS, ALLOC, LOAD, READONLY, CODE
107 .text.avrlibc 00000020  00001822  00001822  000018b6  2**1
                  CONTENTS, ALLOC, LOAD, READONLY, CODE

Disassembly of section .text:

00000000 <__vectors>:
   0:	0c 94 4d 00 	jmp	0x9a	; 0x9a <__ctors_end>
   4:	0c 94 2a 0d 	jmp	0x1a54	; 0x1a54 <__bad_interrupt>
   8:	0c 94 2a 0d 	jmp	0x1a54	; 0x1a54 <__bad_interrupt>
   c:	0c 94 2a 0d 	jmp	0x1a54	; 0x1a54 <__bad_interrupt>
  10:	0c 94 2a 0d 	jmp	0x1a54	; 0x1a54 <__bad_interrupt>
  14:	0c 94 2a 0d 	jmp	0x1a54	; 0x1a54 <__bad_interrupt>
  18:	0c 94 2a 0d 	jmp	0x1a54	; 0x1a54 <__bad_interrupt>
  1c:	0c 94 2a 0d 	jmp	0x1a54	; 0x1a54 <__bad_interrupt>
  20:	0c 94 2a 0d 	jmp	0x1a54	; 0x1a54 <__bad_interrupt>
  24:	0c 94 2a 0d 	jmp	0x1a54	; 0x1a54 <__bad_interrupt>
  28:	0c 94 2a 0d 	jmp	0x1a54	; 0x1a54 <__bad_interrupt>
  2c:	0c 94 2a 0d 	jmp	0x1a54	; 0x1a54 <__bad_interrupt>
  30:	0c 94 2a 0d 	jmp	0x1a54	; 0x1a54 <__bad_interrupt>
  34:	0c 94 2a 0d 	jmp	0x1a54	; 0x1a54 <__bad_interrupt>
  38:	0c 94 2a 0d 	jmp	0x1a54	; 0x1a54 <__bad_interrupt>
  3c:	0c 94 2a 0d 	jmp	0x1a54	; 0x1a54 <__bad_interrupt>
  40:	0c 94 35 07 	jmp	0xe6a	; 0xe6a <__vector_16>
  44:	0c 94 2a 0d 	jmp	0x1a54	; 0x1a54 <__bad_interrupt>
  48:	0c 94 2a 0d 	jmp	0x1a54	; 0x1a54 <__bad_interrupt>
  4c:	0c 94 2a 0d 	jmp	0x1a54	; 0x1a54 <__bad_interrupt>
  50:	0c 94 2a 0d 	jmp	0x1a54	; 0x1a54 <__bad_interrupt>
  54:	0c 94 2a 0d 	jmp	0x1a54	; 0x1a54 <__bad_interrupt>
  58:	0c 94 2a 0d 	jmp	0x1a54	; 0x1a54 <__bad_interrupt>
  5c:	0c 94 2a 0d 	jmp	0x1a54	; 0x1a54 <__bad_interrupt>
  60:	0c 94 2a 0d 	jmp	0x1a54	; 0x1a54 <__bad_interrupt>
  64:	0c 94 2a 0d 	jmp	0x1a54	; 0x1a54 <__bad_interrupt>

00000068 <.dinit>:
  68:	01 8e       	std	Z+25, r0	; 0x19
  6a:	01 90       	ld	r0, Z+
  6c:	80 01       	movw	r16, r0
  6e:	90 01       	movw	r18, r0
  70:	92 80       	ldd	r9, Z+2	; 0x02
  72:	01 7c       	andi	r16, 0xC1	; 193
  74:	01 86       	std	Z+9, r0	; 0x09
  76:	00 1a       	sub	r0, r16
  78:	d8 01       	movw	r26, r16
  7a:	6c 01       	movw	r12, r24
  7c:	7c 00       	.word	0x007c	; ????
  7e:	1a c8       	rjmp	.-4044   	; 0xfffff0b4 <__eeprom_end+0xff7ef0b4>
  80:	01 86       	std	Z+9, r0	; 0x09
  82:	01 8b       	std	Z+17, r16	; 0x11
  84:	00 1a       	sub	r0, r16
  86:	e2 01       	movw	r28, r4
  88:	00 01       	movw	r0, r0
  8a:	6c 00       	.word	0x006c	; ????
  8c:	1a 5c       	subi	r17, 0xCA	; 202
  8e:	01 8b       	std	Z+17, r16	; 0x11
  90:	01 8e       	std	Z+25, r0	; 0x19
  92:	00 1a       	sub	r0, r16
  94:	e7 01       	movw	r28, r14
  96:	92 01       	movw	r18, r4
  98:	94 80       	ldd	r9, Z+4	; 0x04

0000009a <__ctors_end>:
  9a:	11 24       	eor	r1, r1
  9c:	1f be       	out	0x3f, r1	; 63
  9e:	cf ef       	ldi	r28, 0xFF	; 255
  a0:	d8 e0       	ldi	r29, 0x08	; 8
  a2:	de bf       	out	0x3e, r29	; 62
  a4:	cd bf       	out	0x3d, r28	; 61

000000a6 <__do_copy_data>:
  a6:	e8 e6       	ldi	r30, 0x68	; 104
  a8:	f0 e0       	ldi	r31, 0x00	; 0
  aa:	40 e0       	ldi	r20, 0x00	; 0
  ac:	17 c0       	rjmp	.+46     	; 0xdc <__do_clear_bss+0x8>
  ae:	b5 91       	lpm	r27, Z+
  b0:	a5 91       	lpm	r26, Z+
  b2:	35 91       	lpm	r19, Z+
  b4:	25 91       	lpm	r18, Z+
  b6:	05 91       	lpm	r16, Z+
  b8:	07 fd       	sbrc	r16, 7
  ba:	0c c0       	rjmp	.+24     	; 0xd4 <__do_clear_bss>
  bc:	95 91       	lpm	r25, Z+
  be:	85 91       	lpm	r24, Z+
  c0:	ef 01       	movw	r28, r30
  c2:	f9 2f       	mov	r31, r25
  c4:	e8 2f       	mov	r30, r24
  c6:	05 90       	lpm	r0, Z+
  c8:	0d 92       	st	X+, r0
  ca:	a2 17       	cp	r26, r18
  cc:	b3 07       	cpc	r27, r19
  ce:	d9 f7       	brne	.-10     	; 0xc6 <__do_copy_data+0x20>
  d0:	fe 01       	movw	r30, r28
  d2:	04 c0       	rjmp	.+8      	; 0xdc <__do_clear_bss+0x8>

000000d4 <__do_clear_bss>:
  d4:	1d 92       	st	X+, r1
  d6:	a2 17       	cp	r26, r18
  d8:	b3 07       	cpc	r27, r19
  da:	e1 f7       	brne	.-8      	; 0xd4 <__do_clear_bss>
  dc:	ea 39       	cpi	r30, 0x9A	; 154
  de:	f4 07       	cpc	r31, r20
  e0:	31 f7       	brne	.-52     	; 0xae <__do_copy_data+0x8>
  e2:	0e 94 1a 0d 	call	0x1a34	; 0x1a34 <main>
  e6:	0c 94 75 00 	jmp	0xea	; 0xea <_exit>

000000ea <_exit>:
  ea:	f8 94       	cli

000000ec <__stop_program>:
  ec:	ff cf       	rjmp	.-2      	; 0xec <__stop_program>

Disassembly of section .text:

00001a54 <__bad_interrupt>:
    1a54:	0c 94 00 00 	jmp	0	; 0x0 <__TEXT_REGION_ORIGIN__>

Disassembly of section .text.init_usart:

00000c62 <init_usart>:
 c62:	cf 93       	push	r28
 c64:	df 93       	push	r29
 c66:	9c 01       	movw	r18, r24
 c68:	e2 ec       	ldi	r30, 0xC2	; 194
 c6a:	f0 e0       	ldi	r31, 0x00	; 0
 c6c:	80 81       	ld	r24, Z
 c6e:	8f 7d       	andi	r24, 0xDF	; 223
 c70:	80 83       	st	Z, r24
 c72:	80 81       	ld	r24, Z
 c74:	8f 7e       	andi	r24, 0xEF	; 239
 c76:	80 83       	st	Z, r24
 c78:	80 81       	ld	r24, Z
 c7a:	87 7f       	andi	r24, 0xF7	; 247
 c7c:	80 83       	st	Z, r24
 c7e:	c1 ec       	ldi	r28, 0xC1	; 193
 c80:	d0 e0       	ldi	r29, 0x00	; 0
 c82:	88 81       	ld	r24, Y
 c84:	8b 7f       	andi	r24, 0xFB	; 251
 c86:	88 83       	st	Y, r24
 c88:	80 81       	ld	r24, Z
 c8a:	84 60       	ori	r24, 0x04	; 4
 c8c:	80 83       	st	Z, r24
 c8e:	80 81       	ld	r24, Z
 c90:	82 60       	ori	r24, 0x02	; 2
 c92:	80 83       	st	Z, r24
 c94:	e0 ec       	ldi	r30, 0xC0	; 192
 c96:	f0 e0       	ldi	r31, 0x00	; 0
 c98:	80 81       	ld	r24, Z
 c9a:	8d 7f       	andi	r24, 0xFD	; 253
 c9c:	80 83       	st	Z, r24
 c9e:	c9 01       	movw	r24, r18
 ca0:	a0 e0       	ldi	r26, 0x00	; 0
 ca2:	b0 e0       	ldi	r27, 0x00	; 0
 ca4:	88 0f       	add	r24, r24
 ca6:	99 1f       	adc	r25, r25
 ca8:	aa 1f       	adc	r26, r26
 caa:	bb 1f       	adc	r27, r27
 cac:	88 0f       	add	r24, r24
 cae:	99 1f       	adc	r25, r25
 cb0:	aa 1f       	adc	r26, r26
 cb2:	bb 1f       	adc	r27, r27
 cb4:	9c 01       	movw	r18, r24
 cb6:	ad 01       	movw	r20, r26
 cb8:	22 0f       	add	r18, r18
 cba:	33 1f       	adc	r19, r19
 cbc:	44 1f       	adc	r20, r20
 cbe:	55 1f       	adc	r21, r21
 cc0:	22 0f       	add	r18, r18
 cc2:	33 1f       	adc	r19, r19
 cc4:	44 1f       	adc	r20, r20
 cc6:	55 1f       	adc	r21, r21
 cc8:	60 e0       	ldi	r22, 0x00	; 0
 cca:	74 e2       	ldi	r23, 0x24	; 36
 ccc:	84 ef       	ldi	r24, 0xF4	; 244
 cce:	90 e0       	ldi	r25, 0x00	; 0
 cd0:	0e 94 8c 09 	call	0x1318	; 0x1318 <__udivmodsi4>
 cd4:	21 50       	subi	r18, 0x01	; 1
 cd6:	31 09       	sbc	r19, r1
 cd8:	30 93 c5 00 	sts	0x00C5, r19	; 0x8000c5 <__TEXT_REGION_LENGTH__+0x7f80c5>
 cdc:	20 93 c4 00 	sts	0x00C4, r18	; 0x8000c4 <__TEXT_REGION_LENGTH__+0x7f80c4>
 ce0:	88 81       	ld	r24, Y
 ce2:	80 61       	ori	r24, 0x10	; 16
 ce4:	88 83       	st	Y, r24
 ce6:	88 81       	ld	r24, Y
 ce8:	88 60       	ori	r24, 0x08	; 8
 cea:	88 83       	st	Y, r24
 cec:	df 91       	pop	r29
 cee:	cf 91       	pop	r28
 cf0:	08 95       	ret

Disassembly of section .text.usart_write_char:

0000198c <usart_write_char>:
    198c:	90 91 c0 00 	lds	r25, 0x00C0	; 0x8000c0 <__TEXT_REGION_LENGTH__+0x7f80c0>
    1990:	95 ff       	sbrs	r25, 5
    1992:	fc cf       	rjmp	.-8      	; 0x198c <usart_write_char>
    1994:	80 93 c6 00 	sts	0x00C6, r24	; 0x8000c6 <__TEXT_REGION_LENGTH__+0x7f80c6>
    1998:	08 95       	ret

Disassembly of section .text.usart_write_text:

000016d2 <usart_write_text>:
    16d2:	dc 01       	movw	r26, r24
    16d4:	2c 91       	ld	r18, X
    16d6:	22 23       	and	r18, r18
    16d8:	71 f0       	breq	.+28     	; 0x16f6 <usart_write_text+0x24>
    16da:	30 e0       	ldi	r19, 0x00	; 0
    16dc:	90 91 c0 00 	lds	r25, 0x00C0	; 0x8000c0 <__TEXT_REGION_LENGTH__+0x7f80c0>
    16e0:	95 ff       	sbrs	r25, 5
    16e2:	fc cf       	rjmp	.-8      	; 0x16dc <usart_write_text+0xa>
    16e4:	20 93 c6 00 	sts	0x00C6, r18	; 0x8000c6 <__TEXT_REGION_LENGTH__+0x7f80c6>
    16e8:	3f 5f       	subi	r19, 0xFF	; 255
    16ea:	fd 01       	movw	r30, r26
    16ec:	e3 0f       	add	r30, r19
    16ee:	f1 1d       	adc	r31, r1
    16f0:	20 81       	ld	r18, Z
    16f2:	21 11       	cpse	r18, r1
    16f4:	f3 cf       	rjmp	.-26     	; 0x16dc <usart_write_text+0xa>
    16f6:	08 95       	ret

Disassembly of section .text.usart_read_char:

0000199a <usart_read_char>:
    199a:	80 91 c0 00 	lds	r24, 0x00C0	; 0x8000c0 <__TEXT_REGION_LENGTH__+0x7f80c0>
    199e:	87 ff       	sbrs	r24, 7
    19a0:	fc cf       	rjmp	.-8      	; 0x199a <usart_read_char>
    19a2:	80 91 c6 00 	lds	r24, 0x00C6	; 0x8000c6 <__TEXT_REGION_LENGTH__+0x7f80c6>
    19a6:	08 95       	ret

Disassembly of section .text.usart_data_available:

000019ee <usart_data_available>:
    19ee:	80 91 c0 00 	lds	r24, 0x00C0	; 0x8000c0 <__TEXT_REGION_LENGTH__+0x7f80c0>
    19f2:	88 1f       	adc	r24, r24
    19f4:	88 27       	eor	r24, r24
    19f6:	88 1f       	adc	r24, r24
    19f8:	08 95       	ret

Disassembly of section .text.init_pwm:

0000023a <init_pwm>:
 23a:	cf 93       	push	r28
 23c:	c4 2f       	mov	r28, r20
 23e:	8f 31       	cpi	r24, 0x1F	; 31
 240:	91 05       	cpc	r25, r1
 242:	08 f0       	brcs	.+2      	; 0x246 <init_pwm+0xc>
 244:	58 c0       	rjmp	.+176    	; 0x2f6 <init_pwm+0xbc>
 246:	8f e1       	ldi	r24, 0x1F	; 31
 248:	90 e0       	ldi	r25, 0x00	; 0
 24a:	90 93 91 01 	sts	0x0191, r25	; 0x800191 <frequencey_config+0x1>
 24e:	80 93 90 01 	sts	0x0190, r24	; 0x800190 <frequencey_config>
 252:	66 23       	and	r22, r22
 254:	09 f4       	brne	.+2      	; 0x258 <init_pwm+0x1e>
 256:	5c c0       	rjmp	.+184    	; 0x310 <init_pwm+0xd6>
 258:	61 30       	cpi	r22, 0x01	; 1
 25a:	09 f4       	brne	.+2      	; 0x25e <init_pwm+0x24>
 25c:	72 c0       	rjmp	.+228    	; 0x342 <init_pwm+0x108>
 25e:	61 e0       	ldi	r22, 0x01	; 1
 260:	82 e0       	ldi	r24, 0x02	; 2
 262:	0e 94 77 00 	call	0xee	; 0xee <__data_load_end>
 266:	61 e0       	ldi	r22, 0x01	; 1
 268:	81 e0       	ldi	r24, 0x01	; 1
 26a:	0e 94 77 00 	call	0xee	; 0xee <__data_load_end>
 26e:	80 91 80 00 	lds	r24, 0x0080	; 0x800080 <__TEXT_REGION_LENGTH__+0x7f8080>
 272:	cc 23       	and	r28, r28
 274:	09 f4       	brne	.+2      	; 0x278 <init_pwm+0x3e>
 276:	5e c0       	rjmp	.+188    	; 0x334 <init_pwm+0xfa>
 278:	8f 7c       	andi	r24, 0xCF	; 207
 27a:	80 62       	ori	r24, 0x20	; 32
 27c:	80 93 80 00 	sts	0x0080, r24	; 0x800080 <__TEXT_REGION_LENGTH__+0x7f8080>
 280:	80 91 80 00 	lds	r24, 0x0080	; 0x800080 <__TEXT_REGION_LENGTH__+0x7f8080>
 284:	8f 73       	andi	r24, 0x3F	; 63
 286:	80 68       	ori	r24, 0x80	; 128
 288:	80 93 80 00 	sts	0x0080, r24	; 0x800080 <__TEXT_REGION_LENGTH__+0x7f8080>
 28c:	80 91 80 00 	lds	r24, 0x0080	; 0x800080 <__TEXT_REGION_LENGTH__+0x7f8080>
 290:	8c 7f       	andi	r24, 0xFC	; 252
 292:	82 60       	ori	r24, 0x02	; 2
 294:	80 93 80 00 	sts	0x0080, r24	; 0x800080 <__TEXT_REGION_LENGTH__+0x7f8080>
 298:	80 91 81 00 	lds	r24, 0x0081	; 0x800081 <__TEXT_REGION_LENGTH__+0x7f8081>
 29c:	88 61       	ori	r24, 0x18	; 24
 29e:	80 93 81 00 	sts	0x0081, r24	; 0x800081 <__TEXT_REGION_LENGTH__+0x7f8081>
 2a2:	20 91 90 01 	lds	r18, 0x0190	; 0x800190 <frequencey_config>
 2a6:	30 91 91 01 	lds	r19, 0x0191	; 0x800191 <frequencey_config+0x1>
 2aa:	40 e0       	ldi	r20, 0x00	; 0
 2ac:	50 e0       	ldi	r21, 0x00	; 0
 2ae:	60 e0       	ldi	r22, 0x00	; 0
 2b0:	74 e2       	ldi	r23, 0x24	; 36
 2b2:	84 ef       	ldi	r24, 0xF4	; 244
 2b4:	90 e0       	ldi	r25, 0x00	; 0
 2b6:	0e 94 8c 09 	call	0x1318	; 0x1318 <__udivmodsi4>
 2ba:	ca 01       	movw	r24, r20
 2bc:	b9 01       	movw	r22, r18
 2be:	0e 94 bd 06 	call	0xd7a	; 0xd7a <__floatunsisf>
 2c2:	20 e0       	ldi	r18, 0x00	; 0
 2c4:	30 e0       	ldi	r19, 0x00	; 0
 2c6:	40 e0       	ldi	r20, 0x00	; 0
 2c8:	5e e3       	ldi	r21, 0x3E	; 62
 2ca:	0e 94 23 0d 	call	0x1a46	; 0x1a46 <__mulsf3>
 2ce:	0e 94 76 08 	call	0x10ec	; 0x10ec <__fixunssfsi>
 2d2:	60 93 8e 01 	sts	0x018E, r22	; 0x80018e <top_value>
 2d6:	70 93 8f 01 	sts	0x018F, r23	; 0x80018f <top_value+0x1>
 2da:	70 93 87 00 	sts	0x0087, r23	; 0x800087 <__TEXT_REGION_LENGTH__+0x7f8087>
 2de:	80 91 8e 01 	lds	r24, 0x018E	; 0x80018e <top_value>
 2e2:	80 93 86 00 	sts	0x0086, r24	; 0x800086 <__TEXT_REGION_LENGTH__+0x7f8086>
 2e6:	80 91 81 00 	lds	r24, 0x0081	; 0x800081 <__TEXT_REGION_LENGTH__+0x7f8081>
 2ea:	88 7f       	andi	r24, 0xF8	; 248
 2ec:	82 60       	ori	r24, 0x02	; 2
 2ee:	80 93 81 00 	sts	0x0081, r24	; 0x800081 <__TEXT_REGION_LENGTH__+0x7f8081>
 2f2:	cf 91       	pop	r28
 2f4:	08 95       	ret
 2f6:	81 3a       	cpi	r24, 0xA1	; 161
 2f8:	2f e0       	ldi	r18, 0x0F	; 15
 2fa:	92 07       	cpc	r25, r18
 2fc:	08 f4       	brcc	.+2      	; 0x300 <init_pwm+0xc6>
 2fe:	a5 cf       	rjmp	.-182    	; 0x24a <init_pwm+0x10>
 300:	80 ea       	ldi	r24, 0xA0	; 160
 302:	9f e0       	ldi	r25, 0x0F	; 15
 304:	90 93 91 01 	sts	0x0191, r25	; 0x800191 <frequencey_config+0x1>
 308:	80 93 90 01 	sts	0x0190, r24	; 0x800190 <frequencey_config>
 30c:	61 11       	cpse	r22, r1
 30e:	a4 cf       	rjmp	.-184    	; 0x258 <init_pwm+0x1e>
 310:	61 e0       	ldi	r22, 0x01	; 1
 312:	81 e0       	ldi	r24, 0x01	; 1
 314:	0e 94 77 00 	call	0xee	; 0xee <__data_load_end>
 318:	80 91 80 00 	lds	r24, 0x0080	; 0x800080 <__TEXT_REGION_LENGTH__+0x7f8080>
 31c:	cc 23       	and	r28, r28
 31e:	01 f1       	breq	.+64     	; 0x360 <init_pwm+0x126>
 320:	8f 73       	andi	r24, 0x3F	; 63
 322:	80 68       	ori	r24, 0x80	; 128
 324:	80 93 80 00 	sts	0x0080, r24	; 0x800080 <__TEXT_REGION_LENGTH__+0x7f8080>
 328:	80 91 80 00 	lds	r24, 0x0080	; 0x800080 <__TEXT_REGION_LENGTH__+0x7f8080>
 32c:	8f 7c       	andi	r24, 0xCF	; 207
 32e:	80 93 80 00 	sts	0x0080, r24	; 0x800080 <__TEXT_REGION_LENGTH__+0x7f8080>
 332:	95 cf       	rjmp	.-214    	; 0x25e <init_pwm+0x24>
 334:	80 63       	ori	r24, 0x30	; 48
 336:	80 93 80 00 	sts	0x0080, r24	; 0x800080 <__TEXT_REGION_LENGTH__+0x7f8080>
 33a:	80 91 80 00 	lds	r24, 0x0080	; 0x800080 <__TEXT_REGION_LENGTH__+0x7f8080>
 33e:	80 6c       	ori	r24, 0xC0	; 192
 340:	a3 cf       	rjmp	.-186    	; 0x288 <init_pwm+0x4e>
 342:	82 e0       	ldi	r24, 0x02	; 2
 344:	0e 94 77 00 	call	0xee	; 0xee <__data_load_end>
 348:	80 91 80 00 	lds	r24, 0x0080	; 0x800080 <__TEXT_REGION_LENGTH__+0x7f8080>
 34c:	cc 23       	and	r28, r28
 34e:	51 f0       	breq	.+20     	; 0x364 <init_pwm+0x12a>
 350:	8f 7c       	andi	r24, 0xCF	; 207
 352:	80 62       	ori	r24, 0x20	; 32
 354:	80 93 80 00 	sts	0x0080, r24	; 0x800080 <__TEXT_REGION_LENGTH__+0x7f8080>
 358:	80 91 80 00 	lds	r24, 0x0080	; 0x800080 <__TEXT_REGION_LENGTH__+0x7f8080>
 35c:	8f 73       	andi	r24, 0x3F	; 63
 35e:	94 cf       	rjmp	.-216    	; 0x288 <init_pwm+0x4e>
 360:	80 6c       	ori	r24, 0xC0	; 192
 362:	e0 cf       	rjmp	.-64     	; 0x324 <init_pwm+0xea>
 364:	80 63       	ori	r24, 0x30	; 48
 366:	f6 cf       	rjmp	.-20     	; 0x354 <init_pwm+0x11a>

Disassembly of section .text.pwm_change_duty:

00000bce <pwm_change_duty>:
 bce:	cf 92       	push	r12
 bd0:	df 92       	push	r13
 bd2:	ef 92       	push	r14
 bd4:	ff 92       	push	r15
 bd6:	1f 93       	push	r17
 bd8:	cf 93       	push	r28
 bda:	df 93       	push	r29
 bdc:	18 2f       	mov	r17, r24
 bde:	eb 01       	movw	r28, r22
 be0:	60 91 8e 01 	lds	r22, 0x018E	; 0x80018e <top_value>
 be4:	70 91 8f 01 	lds	r23, 0x018F	; 0x80018f <top_value+0x1>
 be8:	80 e0       	ldi	r24, 0x00	; 0
 bea:	90 e0       	ldi	r25, 0x00	; 0
 bec:	0e 94 bd 06 	call	0xd7a	; 0xd7a <__floatunsisf>
 bf0:	20 e0       	ldi	r18, 0x00	; 0
 bf2:	30 e0       	ldi	r19, 0x00	; 0
 bf4:	40 e0       	ldi	r20, 0x00	; 0
 bf6:	5b e3       	ldi	r21, 0x3B	; 59
 bf8:	0e 94 23 0d 	call	0x1a46	; 0x1a46 <__mulsf3>
 bfc:	6b 01       	movw	r12, r22
 bfe:	7c 01       	movw	r14, r24
 c00:	be 01       	movw	r22, r28
 c02:	80 e0       	ldi	r24, 0x00	; 0
 c04:	90 e0       	ldi	r25, 0x00	; 0
 c06:	0e 94 bd 06 	call	0xd7a	; 0xd7a <__floatunsisf>
 c0a:	9b 01       	movw	r18, r22
 c0c:	ac 01       	movw	r20, r24
 c0e:	c7 01       	movw	r24, r14
 c10:	b6 01       	movw	r22, r12
 c12:	0e 94 23 0d 	call	0x1a46	; 0x1a46 <__mulsf3>
 c16:	0e 94 76 08 	call	0x10ec	; 0x10ec <__fixunssfsi>
 c1a:	11 23       	and	r17, r17
 c1c:	b1 f0       	breq	.+44     	; 0xc4a <pwm_change_duty+0x7c>
 c1e:	11 30       	cpi	r17, 0x01	; 1
 c20:	41 f0       	breq	.+16     	; 0xc32 <pwm_change_duty+0x64>
 c22:	df 91       	pop	r29
 c24:	cf 91       	pop	r28
 c26:	1f 91       	pop	r17
 c28:	ff 90       	pop	r15
 c2a:	ef 90       	pop	r14
 c2c:	df 90       	pop	r13
 c2e:	cf 90       	pop	r12
 c30:	08 95       	ret
 c32:	70 93 8b 00 	sts	0x008B, r23	; 0x80008b <__TEXT_REGION_LENGTH__+0x7f808b>
 c36:	60 93 8a 00 	sts	0x008A, r22	; 0x80008a <__TEXT_REGION_LENGTH__+0x7f808a>
 c3a:	df 91       	pop	r29
 c3c:	cf 91       	pop	r28
 c3e:	1f 91       	pop	r17
 c40:	ff 90       	pop	r15
 c42:	ef 90       	pop	r14
 c44:	df 90       	pop	r13
 c46:	cf 90       	pop	r12
 c48:	08 95       	ret
 c4a:	70 93 89 00 	sts	0x0089, r23	; 0x800089 <__TEXT_REGION_LENGTH__+0x7f8089>
 c4e:	60 93 88 00 	sts	0x0088, r22	; 0x800088 <__TEXT_REGION_LENGTH__+0x7f8088>
 c52:	df 91       	pop	r29
 c54:	cf 91       	pop	r28
 c56:	1f 91       	pop	r17
 c58:	ff 90       	pop	r15
 c5a:	ef 90       	pop	r14
 c5c:	df 90       	pop	r13
 c5e:	cf 90       	pop	r12
 c60:	08 95       	ret

Disassembly of section .text.init_timer1:

00001842 <init_timer1>:
    1842:	10 92 80 00 	sts	0x0080, r1	; 0x800080 <__TEXT_REGION_LENGTH__+0x7f8080>
    1846:	e1 e8       	ldi	r30, 0x81	; 129
    1848:	f0 e0       	ldi	r31, 0x00	; 0
    184a:	80 81       	ld	r24, Z
    184c:	8f 7e       	andi	r24, 0xEF	; 239
    184e:	80 83       	st	Z, r24
    1850:	80 81       	ld	r24, Z
    1852:	87 7f       	andi	r24, 0xF7	; 247
    1854:	80 83       	st	Z, r24
    1856:	80 81       	ld	r24, Z
    1858:	88 7f       	andi	r24, 0xF8	; 248
    185a:	80 83       	st	Z, r24
    185c:	08 95       	ret

Disassembly of section .text.start_timer1:

0000196a <start_timer1>:
    196a:	e1 e8       	ldi	r30, 0x81	; 129
    196c:	f0 e0       	ldi	r31, 0x00	; 0
    196e:	80 81       	ld	r24, Z
    1970:	90 81       	ld	r25, Z
    1972:	88 7f       	andi	r24, 0xF8	; 248
    1974:	82 60       	ori	r24, 0x02	; 2
    1976:	89 2b       	or	r24, r25
    1978:	80 83       	st	Z, r24
    197a:	08 95       	ret

Disassembly of section .text.stop_timer1:

000019fa <stop_timer1>:
    19fa:	e1 e8       	ldi	r30, 0x81	; 129
    19fc:	f0 e0       	ldi	r31, 0x00	; 0
    19fe:	80 81       	ld	r24, Z
    1a00:	88 7f       	andi	r24, 0xF8	; 248
    1a02:	80 83       	st	Z, r24
    1a04:	08 95       	ret

Disassembly of section .text.get_timer1_counts:

000019a8 <get_timer1_counts>:
    19a8:	80 91 84 00 	lds	r24, 0x0084	; 0x800084 <__TEXT_REGION_LENGTH__+0x7f8084>
    19ac:	20 91 85 00 	lds	r18, 0x0085	; 0x800085 <__TEXT_REGION_LENGTH__+0x7f8085>
    19b0:	90 e0       	ldi	r25, 0x00	; 0
    19b2:	92 2b       	or	r25, r18
    19b4:	08 95       	ret

Disassembly of section .text.reset_timer1:

00001a2a <reset_timer1>:
    1a2a:	10 92 85 00 	sts	0x0085, r1	; 0x800085 <__TEXT_REGION_LENGTH__+0x7f8085>
    1a2e:	10 92 84 00 	sts	0x0084, r1	; 0x800084 <__TEXT_REGION_LENGTH__+0x7f8084>
    1a32:	08 95       	ret

Disassembly of section .text.init_spi:

00000b2a <init_spi>:
 b2a:	cf 93       	push	r28
 b2c:	c8 2f       	mov	r28, r24
 b2e:	8c b5       	in	r24, 0x2c	; 44
 b30:	41 11       	cpse	r20, r1
 b32:	26 c0       	rjmp	.+76     	; 0xb80 <init_spi+0x56>
 b34:	87 7f       	andi	r24, 0xF7	; 247
 b36:	8c bd       	out	0x2c, r24	; 44
 b38:	8c b5       	in	r24, 0x2c	; 44
 b3a:	61 11       	cpse	r22, r1
 b3c:	26 c0       	rjmp	.+76     	; 0xb8a <init_spi+0x60>
 b3e:	8f 7e       	andi	r24, 0xEF	; 239
 b40:	8c bd       	out	0x2c, r24	; 44
 b42:	c7 30       	cpi	r28, 0x07	; 7
 b44:	31 f1       	breq	.+76     	; 0xb92 <init_spi+0x68>
 b46:	61 e0       	ldi	r22, 0x01	; 1
 b48:	83 e0       	ldi	r24, 0x03	; 3
 b4a:	0e 94 77 00 	call	0xee	; 0xee <__data_load_end>
 b4e:	61 e0       	ldi	r22, 0x01	; 1
 b50:	85 e0       	ldi	r24, 0x05	; 5
 b52:	0e 94 77 00 	call	0xee	; 0xee <__data_load_end>
 b56:	60 e0       	ldi	r22, 0x00	; 0
 b58:	84 e0       	ldi	r24, 0x04	; 4
 b5a:	0e 94 77 00 	call	0xee	; 0xee <__data_load_end>
 b5e:	8c b5       	in	r24, 0x2c	; 44
 b60:	80 61       	ori	r24, 0x10	; 16
 b62:	8c bd       	out	0x2c, r24	; 44
 b64:	8d b5       	in	r24, 0x2d	; 45
 b66:	c4 30       	cpi	r28, 0x04	; 4
 b68:	60 f1       	brcs	.+88     	; 0xbc2 <init_spi+0x98>
 b6a:	81 60       	ori	r24, 0x01	; 1
 b6c:	8d bd       	out	0x2d, r24	; 45
 b6e:	8c b5       	in	r24, 0x2c	; 44
 b70:	c8 2b       	or	r28, r24
 b72:	cc 7f       	andi	r28, 0xFC	; 252
 b74:	cc bd       	out	0x2c, r28	; 44
 b76:	8c b5       	in	r24, 0x2c	; 44
 b78:	80 64       	ori	r24, 0x40	; 64
 b7a:	8c bd       	out	0x2c, r24	; 44
 b7c:	cf 91       	pop	r28
 b7e:	08 95       	ret
 b80:	88 60       	ori	r24, 0x08	; 8
 b82:	8c bd       	out	0x2c, r24	; 44
 b84:	8c b5       	in	r24, 0x2c	; 44
 b86:	66 23       	and	r22, r22
 b88:	d1 f2       	breq	.-76     	; 0xb3e <init_spi+0x14>
 b8a:	80 61       	ori	r24, 0x10	; 16
 b8c:	8c bd       	out	0x2c, r24	; 44
 b8e:	c7 30       	cpi	r28, 0x07	; 7
 b90:	d1 f6       	brne	.-76     	; 0xb46 <init_spi+0x1c>
 b92:	60 e0       	ldi	r22, 0x00	; 0
 b94:	83 e0       	ldi	r24, 0x03	; 3
 b96:	0e 94 77 00 	call	0xee	; 0xee <__data_load_end>
 b9a:	60 e0       	ldi	r22, 0x00	; 0
 b9c:	85 e0       	ldi	r24, 0x05	; 5
 b9e:	0e 94 77 00 	call	0xee	; 0xee <__data_load_end>
 ba2:	60 e0       	ldi	r22, 0x00	; 0
 ba4:	82 e0       	ldi	r24, 0x02	; 2
 ba6:	0e 94 77 00 	call	0xee	; 0xee <__data_load_end>
 baa:	61 e0       	ldi	r22, 0x01	; 1
 bac:	84 e0       	ldi	r24, 0x04	; 4
 bae:	0e 94 77 00 	call	0xee	; 0xee <__data_load_end>
 bb2:	8c b5       	in	r24, 0x2c	; 44
 bb4:	8f 7e       	andi	r24, 0xEF	; 239
 bb6:	8c bd       	out	0x2c, r24	; 44
 bb8:	8c b5       	in	r24, 0x2c	; 44
 bba:	80 64       	ori	r24, 0x40	; 64
 bbc:	8c bd       	out	0x2c, r24	; 44
 bbe:	cf 91       	pop	r28
 bc0:	08 95       	ret
 bc2:	8e 7f       	andi	r24, 0xFE	; 254
 bc4:	8d bd       	out	0x2d, r24	; 45
 bc6:	8c b5       	in	r24, 0x2c	; 44
 bc8:	8c 7f       	andi	r24, 0xFC	; 252
 bca:	c8 2b       	or	r28, r24
 bcc:	d3 cf       	rjmp	.-90     	; 0xb74 <init_spi+0x4a>

Disassembly of section .text.spi_write:

00001a06 <spi_write>:
    1a06:	8e bd       	out	0x2e, r24	; 46
    1a08:	0d b4       	in	r0, 0x2d	; 45
    1a0a:	07 fe       	sbrs	r0, 7
    1a0c:	fd cf       	rjmp	.-6      	; 0x1a08 <spi_write+0x2>
    1a0e:	8e b5       	in	r24, 0x2e	; 46
    1a10:	08 95       	ret

Disassembly of section .text.spi_read:

00001a12 <spi_read>:
    1a12:	8e bd       	out	0x2e, r24	; 46
    1a14:	0d b4       	in	r0, 0x2d	; 45
    1a16:	07 fe       	sbrs	r0, 7
    1a18:	fd cf       	rjmp	.-6      	; 0x1a14 <spi_read+0x2>
    1a1a:	8e b5       	in	r24, 0x2e	; 46
    1a1c:	08 95       	ret

Disassembly of section .text.init_i2c:

0000185e <init_i2c>:
    185e:	e9 eb       	ldi	r30, 0xB9	; 185
    1860:	f0 e0       	ldi	r31, 0x00	; 0
    1862:	80 81       	ld	r24, Z
    1864:	8c 7f       	andi	r24, 0xFC	; 252
    1866:	80 83       	st	Z, r24
    1868:	88 e4       	ldi	r24, 0x48	; 72
    186a:	80 93 b8 00 	sts	0x00B8, r24	; 0x8000b8 <__TEXT_REGION_LENGTH__+0x7f80b8>
    186e:	ec eb       	ldi	r30, 0xBC	; 188
    1870:	f0 e0       	ldi	r31, 0x00	; 0
    1872:	80 81       	ld	r24, Z
    1874:	84 60       	ori	r24, 0x04	; 4
    1876:	80 83       	st	Z, r24
    1878:	08 95       	ret

Disassembly of section .text.i2c_start:

000013a0 <i2c_start>:
    13a0:	94 ea       	ldi	r25, 0xA4	; 164
    13a2:	90 93 bc 00 	sts	0x00BC, r25	; 0x8000bc <__TEXT_REGION_LENGTH__+0x7f80bc>
    13a6:	90 91 bc 00 	lds	r25, 0x00BC	; 0x8000bc <__TEXT_REGION_LENGTH__+0x7f80bc>
    13aa:	97 ff       	sbrs	r25, 7
    13ac:	fc cf       	rjmp	.-8      	; 0x13a6 <i2c_start+0x6>
    13ae:	90 91 b9 00 	lds	r25, 0x00B9	; 0x8000b9 <__TEXT_REGION_LENGTH__+0x7f80b9>
    13b2:	98 7f       	andi	r25, 0xF8	; 248
    13b4:	98 30       	cpi	r25, 0x08	; 8
    13b6:	11 f0       	breq	.+4      	; 0x13bc <i2c_start+0x1c>
    13b8:	80 e0       	ldi	r24, 0x00	; 0
    13ba:	08 95       	ret
    13bc:	80 93 bb 00 	sts	0x00BB, r24	; 0x8000bb <__TEXT_REGION_LENGTH__+0x7f80bb>
    13c0:	84 e8       	ldi	r24, 0x84	; 132
    13c2:	80 93 bc 00 	sts	0x00BC, r24	; 0x8000bc <__TEXT_REGION_LENGTH__+0x7f80bc>
    13c6:	80 91 bc 00 	lds	r24, 0x00BC	; 0x8000bc <__TEXT_REGION_LENGTH__+0x7f80bc>
    13ca:	87 ff       	sbrs	r24, 7
    13cc:	fc cf       	rjmp	.-8      	; 0x13c6 <i2c_start+0x26>
    13ce:	80 91 b9 00 	lds	r24, 0x00B9	; 0x8000b9 <__TEXT_REGION_LENGTH__+0x7f80b9>
    13d2:	88 7f       	andi	r24, 0xF8	; 248
    13d4:	88 31       	cpi	r24, 0x18	; 24
    13d6:	11 f0       	breq	.+4      	; 0x13dc <i2c_start+0x3c>
    13d8:	80 34       	cpi	r24, 0x40	; 64
    13da:	71 f7       	brne	.-36     	; 0x13b8 <i2c_start+0x18>
    13dc:	81 e0       	ldi	r24, 0x01	; 1
    13de:	08 95       	ret

Disassembly of section .text.i2c_write:

0000171c <i2c_write>:
    171c:	80 93 bb 00 	sts	0x00BB, r24	; 0x8000bb <__TEXT_REGION_LENGTH__+0x7f80bb>
    1720:	84 e8       	ldi	r24, 0x84	; 132
    1722:	80 93 bc 00 	sts	0x00BC, r24	; 0x8000bc <__TEXT_REGION_LENGTH__+0x7f80bc>
    1726:	80 91 bc 00 	lds	r24, 0x00BC	; 0x8000bc <__TEXT_REGION_LENGTH__+0x7f80bc>
    172a:	87 ff       	sbrs	r24, 7
    172c:	fc cf       	rjmp	.-8      	; 0x1726 <i2c_write+0xa>
    172e:	90 91 b9 00 	lds	r25, 0x00B9	; 0x8000b9 <__TEXT_REGION_LENGTH__+0x7f80b9>
    1732:	98 7f       	andi	r25, 0xF8	; 248
    1734:	81 e0       	ldi	r24, 0x01	; 1
    1736:	98 31       	cpi	r25, 0x18	; 24
    1738:	09 f0       	breq	.+2      	; 0x173c <i2c_write+0x20>
    173a:	80 e0       	ldi	r24, 0x00	; 0
    173c:	08 95       	ret

Disassembly of section .text.i2c_read_ack:

00001906 <i2c_read_ack>:
    1906:	84 ec       	ldi	r24, 0xC4	; 196
    1908:	80 93 bc 00 	sts	0x00BC, r24	; 0x8000bc <__TEXT_REGION_LENGTH__+0x7f80bc>
    190c:	80 91 bc 00 	lds	r24, 0x00BC	; 0x8000bc <__TEXT_REGION_LENGTH__+0x7f80bc>
    1910:	87 ff       	sbrs	r24, 7
    1912:	fc cf       	rjmp	.-8      	; 0x190c <i2c_read_ack+0x6>
    1914:	80 91 bb 00 	lds	r24, 0x00BB	; 0x8000bb <__TEXT_REGION_LENGTH__+0x7f80bb>
    1918:	08 95       	ret

Disassembly of section .text.i2c_read_nack:

0000191a <i2c_read_nack>:
    191a:	84 e8       	ldi	r24, 0x84	; 132
    191c:	80 93 bc 00 	sts	0x00BC, r24	; 0x8000bc <__TEXT_REGION_LENGTH__+0x7f80bc>
    1920:	80 91 bc 00 	lds	r24, 0x00BC	; 0x8000bc <__TEXT_REGION_LENGTH__+0x7f80bc>
    1924:	87 ff       	sbrs	r24, 7
    1926:	fc cf       	rjmp	.-8      	; 0x1920 <i2c_read_nack+0x6>
    1928:	80 91 bb 00 	lds	r24, 0x00BB	; 0x8000bb <__TEXT_REGION_LENGTH__+0x7f80bb>
    192c:	08 95       	ret

Disassembly of section .text.i2c_transmit:

00000ede <i2c_transmit>:
 ede:	1f 93       	push	r17
 ee0:	cf 93       	push	r28
 ee2:	df 93       	push	r29
 ee4:	16 2f       	mov	r17, r22
 ee6:	d7 2f       	mov	r29, r23
 ee8:	c4 2f       	mov	r28, r20
 eea:	88 0f       	add	r24, r24
 eec:	0e 94 d0 09 	call	0x13a0	; 0x13a0 <i2c_start>
 ef0:	81 30       	cpi	r24, 0x01	; 1
 ef2:	29 f0       	breq	.+10     	; 0xefe <i2c_transmit+0x20>
 ef4:	80 e0       	ldi	r24, 0x00	; 0
 ef6:	df 91       	pop	r29
 ef8:	cf 91       	pop	r28
 efa:	1f 91       	pop	r17
 efc:	08 95       	ret
 efe:	cc 23       	and	r28, r28
 f00:	d9 f0       	breq	.+54     	; 0xf38 <i2c_transmit+0x5a>
 f02:	e1 2f       	mov	r30, r17
 f04:	fd 2f       	mov	r31, r29
 f06:	c1 50       	subi	r28, 0x01	; 1
 f08:	2c 2f       	mov	r18, r28
 f0a:	30 e0       	ldi	r19, 0x00	; 0
 f0c:	2f 5f       	subi	r18, 0xFF	; 255
 f0e:	3f 4f       	sbci	r19, 0xFF	; 255
 f10:	2e 0f       	add	r18, r30
 f12:	3f 1f       	adc	r19, r31
 f14:	44 e8       	ldi	r20, 0x84	; 132
 f16:	91 91       	ld	r25, Z+
 f18:	90 93 bb 00 	sts	0x00BB, r25	; 0x8000bb <__TEXT_REGION_LENGTH__+0x7f80bb>
 f1c:	40 93 bc 00 	sts	0x00BC, r20	; 0x8000bc <__TEXT_REGION_LENGTH__+0x7f80bc>
 f20:	90 91 bc 00 	lds	r25, 0x00BC	; 0x8000bc <__TEXT_REGION_LENGTH__+0x7f80bc>
 f24:	97 ff       	sbrs	r25, 7
 f26:	fc cf       	rjmp	.-8      	; 0xf20 <i2c_transmit+0x42>
 f28:	90 91 b9 00 	lds	r25, 0x00B9	; 0x8000b9 <__TEXT_REGION_LENGTH__+0x7f80b9>
 f2c:	98 7f       	andi	r25, 0xF8	; 248
 f2e:	98 31       	cpi	r25, 0x18	; 24
 f30:	51 f4       	brne	.+20     	; 0xf46 <i2c_transmit+0x68>
 f32:	e2 17       	cp	r30, r18
 f34:	f3 07       	cpc	r31, r19
 f36:	79 f7       	brne	.-34     	; 0xf16 <i2c_transmit+0x38>
 f38:	94 e9       	ldi	r25, 0x94	; 148
 f3a:	90 93 bc 00 	sts	0x00BC, r25	; 0x8000bc <__TEXT_REGION_LENGTH__+0x7f80bc>
 f3e:	df 91       	pop	r29
 f40:	cf 91       	pop	r28
 f42:	1f 91       	pop	r17
 f44:	08 95       	ret
 f46:	80 e0       	ldi	r24, 0x00	; 0
 f48:	94 e9       	ldi	r25, 0x94	; 148
 f4a:	90 93 bc 00 	sts	0x00BC, r25	; 0x8000bc <__TEXT_REGION_LENGTH__+0x7f80bc>
 f4e:	f7 cf       	rjmp	.-18     	; 0xf3e <i2c_transmit+0x60>

Disassembly of section .text.i2c_receive:

00000cf2 <i2c_receive>:
 cf2:	1f 93       	push	r17
 cf4:	cf 93       	push	r28
 cf6:	df 93       	push	r29
 cf8:	eb 01       	movw	r28, r22
 cfa:	14 2f       	mov	r17, r20
 cfc:	88 0f       	add	r24, r24
 cfe:	81 60       	ori	r24, 0x01	; 1
 d00:	0e 94 d0 09 	call	0x13a0	; 0x13a0 <i2c_start>
 d04:	81 30       	cpi	r24, 0x01	; 1
 d06:	29 f0       	breq	.+10     	; 0xd12 <i2c_receive+0x20>
 d08:	80 e0       	ldi	r24, 0x00	; 0
 d0a:	df 91       	pop	r29
 d0c:	cf 91       	pop	r28
 d0e:	1f 91       	pop	r17
 d10:	08 95       	ret
 d12:	61 2f       	mov	r22, r17
 d14:	70 e0       	ldi	r23, 0x00	; 0
 d16:	61 50       	subi	r22, 0x01	; 1
 d18:	71 09       	sbc	r23, r1
 d1a:	16 16       	cp	r1, r22
 d1c:	17 06       	cpc	r1, r23
 d1e:	54 f5       	brge	.+84     	; 0xd74 <i2c_receive+0x82>
 d20:	40 e0       	ldi	r20, 0x00	; 0
 d22:	20 e0       	ldi	r18, 0x00	; 0
 d24:	30 e0       	ldi	r19, 0x00	; 0
 d26:	54 ec       	ldi	r21, 0xC4	; 196
 d28:	fe 01       	movw	r30, r28
 d2a:	e2 0f       	add	r30, r18
 d2c:	f3 1f       	adc	r31, r19
 d2e:	50 93 bc 00 	sts	0x00BC, r21	; 0x8000bc <__TEXT_REGION_LENGTH__+0x7f80bc>
 d32:	90 91 bc 00 	lds	r25, 0x00BC	; 0x8000bc <__TEXT_REGION_LENGTH__+0x7f80bc>
 d36:	97 ff       	sbrs	r25, 7
 d38:	fc cf       	rjmp	.-8      	; 0xd32 <i2c_receive+0x40>
 d3a:	90 91 bb 00 	lds	r25, 0x00BB	; 0x8000bb <__TEXT_REGION_LENGTH__+0x7f80bb>
 d3e:	90 83       	st	Z, r25
 d40:	4f 5f       	subi	r20, 0xFF	; 255
 d42:	24 2f       	mov	r18, r20
 d44:	30 e0       	ldi	r19, 0x00	; 0
 d46:	26 17       	cp	r18, r22
 d48:	37 07       	cpc	r19, r23
 d4a:	74 f3       	brlt	.-36     	; 0xd28 <i2c_receive+0x36>
 d4c:	fe 01       	movw	r30, r28
 d4e:	e2 0f       	add	r30, r18
 d50:	f3 1f       	adc	r31, r19
 d52:	94 e8       	ldi	r25, 0x84	; 132
 d54:	90 93 bc 00 	sts	0x00BC, r25	; 0x8000bc <__TEXT_REGION_LENGTH__+0x7f80bc>
 d58:	90 91 bc 00 	lds	r25, 0x00BC	; 0x8000bc <__TEXT_REGION_LENGTH__+0x7f80bc>
 d5c:	97 ff       	sbrs	r25, 7
 d5e:	fc cf       	rjmp	.-8      	; 0xd58 <i2c_receive+0x66>
 d60:	90 91 bb 00 	lds	r25, 0x00BB	; 0x8000bb <__TEXT_REGION_LENGTH__+0x7f80bb>
 d64:	90 83       	st	Z, r25
 d66:	94 e9       	ldi	r25, 0x94	; 148
 d68:	90 93 bc 00 	sts	0x00BC, r25	; 0x8000bc <__TEXT_REGION_LENGTH__+0x7f80bc>
 d6c:	df 91       	pop	r29
 d6e:	cf 91       	pop	r28
 d70:	1f 91       	pop	r17
 d72:	08 95       	ret
 d74:	20 e0       	ldi	r18, 0x00	; 0
 d76:	30 e0       	ldi	r19, 0x00	; 0
 d78:	e9 cf       	rjmp	.-46     	; 0xd4c <i2c_receive+0x5a>

Disassembly of section .text.i2c_stop:

00001a3e <i2c_stop>:
    1a3e:	84 e9       	ldi	r24, 0x94	; 148
    1a40:	80 93 bc 00 	sts	0x00BC, r24	; 0x8000bc <__TEXT_REGION_LENGTH__+0x7f80bc>
    1a44:	08 95       	ret

Disassembly of section .text.init_adc:

00001554 <init_adc>:
    1554:	ea e7       	ldi	r30, 0x7A	; 122
    1556:	f0 e0       	ldi	r31, 0x00	; 0
    1558:	80 81       	ld	r24, Z
    155a:	80 68       	ori	r24, 0x80	; 128
    155c:	80 83       	st	Z, r24
    155e:	80 81       	ld	r24, Z
    1560:	84 60       	ori	r24, 0x04	; 4
    1562:	80 83       	st	Z, r24
    1564:	80 81       	ld	r24, Z
    1566:	82 60       	ori	r24, 0x02	; 2
    1568:	80 83       	st	Z, r24
    156a:	80 81       	ld	r24, Z
    156c:	81 60       	ori	r24, 0x01	; 1
    156e:	80 83       	st	Z, r24
    1570:	ec e7       	ldi	r30, 0x7C	; 124
    1572:	f0 e0       	ldi	r31, 0x00	; 0
    1574:	80 81       	ld	r24, Z
    1576:	8f 77       	andi	r24, 0x7F	; 127
    1578:	80 83       	st	Z, r24
    157a:	80 81       	ld	r24, Z
    157c:	80 64       	ori	r24, 0x40	; 64
    157e:	80 83       	st	Z, r24
    1580:	80 81       	ld	r24, Z
    1582:	8f 7d       	andi	r24, 0xDF	; 223
    1584:	80 83       	st	Z, r24
    1586:	08 95       	ret

Disassembly of section .text.adc_channel_read:

00001624 <adc_channel_read>:
    1624:	90 91 7c 00 	lds	r25, 0x007C	; 0x80007c <__TEXT_REGION_LENGTH__+0x7f807c>
    1628:	90 7f       	andi	r25, 0xF0	; 240
    162a:	89 2b       	or	r24, r25
    162c:	80 93 7c 00 	sts	0x007C, r24	; 0x80007c <__TEXT_REGION_LENGTH__+0x7f807c>
    1630:	80 91 7a 00 	lds	r24, 0x007A	; 0x80007a <__TEXT_REGION_LENGTH__+0x7f807a>
    1634:	80 64       	ori	r24, 0x40	; 64
    1636:	80 93 7a 00 	sts	0x007A, r24	; 0x80007a <__TEXT_REGION_LENGTH__+0x7f807a>
    163a:	80 91 7a 00 	lds	r24, 0x007A	; 0x80007a <__TEXT_REGION_LENGTH__+0x7f807a>
    163e:	86 fd       	sbrc	r24, 6
    1640:	fc cf       	rjmp	.-8      	; 0x163a <adc_channel_read+0x16>
    1642:	80 91 78 00 	lds	r24, 0x0078	; 0x800078 <__TEXT_REGION_LENGTH__+0x7f8078>
    1646:	20 91 79 00 	lds	r18, 0x0079	; 0x800079 <__TEXT_REGION_LENGTH__+0x7f8079>
    164a:	90 e0       	ldi	r25, 0x00	; 0
    164c:	92 2b       	or	r25, r18
    164e:	08 95       	ret

Disassembly of section .text.get_analog_value:

000013e0 <get_analog_value>:
    13e0:	90 91 7c 00 	lds	r25, 0x007C	; 0x80007c <__TEXT_REGION_LENGTH__+0x7f807c>
    13e4:	90 7f       	andi	r25, 0xF0	; 240
    13e6:	89 2b       	or	r24, r25
    13e8:	80 93 7c 00 	sts	0x007C, r24	; 0x80007c <__TEXT_REGION_LENGTH__+0x7f807c>
    13ec:	80 91 7a 00 	lds	r24, 0x007A	; 0x80007a <__TEXT_REGION_LENGTH__+0x7f807a>
    13f0:	80 64       	ori	r24, 0x40	; 64
    13f2:	80 93 7a 00 	sts	0x007A, r24	; 0x80007a <__TEXT_REGION_LENGTH__+0x7f807a>
    13f6:	80 91 7a 00 	lds	r24, 0x007A	; 0x80007a <__TEXT_REGION_LENGTH__+0x7f807a>
    13fa:	86 fd       	sbrc	r24, 6
    13fc:	fc cf       	rjmp	.-8      	; 0x13f6 <get_analog_value+0x16>
    13fe:	60 91 78 00 	lds	r22, 0x0078	; 0x800078 <__TEXT_REGION_LENGTH__+0x7f8078>
    1402:	80 91 79 00 	lds	r24, 0x0079	; 0x800079 <__TEXT_REGION_LENGTH__+0x7f8079>
    1406:	70 e0       	ldi	r23, 0x00	; 0
    1408:	78 2b       	or	r23, r24
    140a:	80 e0       	ldi	r24, 0x00	; 0
    140c:	90 e0       	ldi	r25, 0x00	; 0
    140e:	0e 94 bd 06 	call	0xd7a	; 0xd7a <__floatunsisf>
    1412:	20 e0       	ldi	r18, 0x00	; 0
    1414:	30 e0       	ldi	r19, 0x00	; 0
    1416:	40 ea       	ldi	r20, 0xA0	; 160
    1418:	5b e3       	ldi	r21, 0x3B	; 59
    141a:	0e 94 23 0d 	call	0x1a46	; 0x1a46 <__mulsf3>
    141e:	08 95       	ret

Disassembly of section .text.EEPROM_write:

0000197c <EEPROM_write>:
    197c:	f9 99       	sbic	0x1f, 1	; 31
    197e:	fe cf       	rjmp	.-4      	; 0x197c <EEPROM_write>
    1980:	92 bd       	out	0x22, r25	; 34
    1982:	81 bd       	out	0x21, r24	; 33
    1984:	60 bd       	out	0x20, r22	; 32
    1986:	fa 9a       	sbi	0x1f, 2	; 31
    1988:	f9 9a       	sbi	0x1f, 1	; 31
    198a:	08 95       	ret

Disassembly of section .text.EEPROM_read:

000019b6 <EEPROM_read>:
    19b6:	f9 99       	sbic	0x1f, 1	; 31
    19b8:	fe cf       	rjmp	.-4      	; 0x19b6 <EEPROM_read>
    19ba:	92 bd       	out	0x22, r25	; 34
    19bc:	81 bd       	out	0x21, r24	; 33
    19be:	f8 9a       	sbi	0x1f, 0	; 31
    19c0:	80 b5       	in	r24, 0x20	; 32
    19c2:	08 95       	ret

Disassembly of section .text.dio_channel_config:

000000ee <dio_channel_config>:
  ee:	98 2f       	mov	r25, r24
  f0:	97 70       	andi	r25, 0x07	; 7
  f2:	86 95       	lsr	r24
  f4:	86 95       	lsr	r24
  f6:	86 95       	lsr	r24
  f8:	81 30       	cpi	r24, 0x01	; 1
  fa:	31 f1       	breq	.+76     	; 0x148 <dio_channel_config+0x5a>
  fc:	60 f0       	brcs	.+24     	; 0x116 <dio_channel_config+0x28>
  fe:	82 30       	cpi	r24, 0x02	; 2
 100:	49 f4       	brne	.+18     	; 0x114 <dio_channel_config+0x26>
 102:	61 30       	cpi	r22, 0x01	; 1
 104:	09 f4       	brne	.+2      	; 0x108 <dio_channel_config+0x1a>
 106:	81 c0       	rjmp	.+258    	; 0x20a <dio_channel_config+0x11c>
 108:	66 23       	and	r22, r22
 10a:	b9 f1       	breq	.+110    	; 0x17a <dio_channel_config+0x8c>
 10c:	62 30       	cpi	r22, 0x02	; 2
 10e:	09 f4       	brne	.+2      	; 0x112 <dio_channel_config+0x24>
 110:	5e c0       	rjmp	.+188    	; 0x1ce <dio_channel_config+0xe0>
 112:	08 95       	ret
 114:	08 95       	ret
 116:	61 30       	cpi	r22, 0x01	; 1
 118:	09 f4       	brne	.+2      	; 0x11c <dio_channel_config+0x2e>
 11a:	6b c0       	rjmp	.+214    	; 0x1f2 <dio_channel_config+0x104>
 11c:	66 23       	and	r22, r22
 11e:	d9 f1       	breq	.+118    	; 0x196 <dio_channel_config+0xa8>
 120:	62 30       	cpi	r22, 0x02	; 2
 122:	b9 f7       	brne	.-18     	; 0x112 <dio_channel_config+0x24>
 124:	44 b1       	in	r20, 0x04	; 4
 126:	21 e0       	ldi	r18, 0x01	; 1
 128:	30 e0       	ldi	r19, 0x00	; 0
 12a:	b9 01       	movw	r22, r18
 12c:	02 c0       	rjmp	.+4      	; 0x132 <dio_channel_config+0x44>
 12e:	66 0f       	add	r22, r22
 130:	77 1f       	adc	r23, r23
 132:	9a 95       	dec	r25
 134:	e2 f7       	brpl	.-8      	; 0x12e <dio_channel_config+0x40>
 136:	cb 01       	movw	r24, r22
 138:	96 2f       	mov	r25, r22
 13a:	90 95       	com	r25
 13c:	94 23       	and	r25, r20
 13e:	94 b9       	out	0x04, r25	; 4
 140:	95 b1       	in	r25, 0x05	; 5
 142:	89 2b       	or	r24, r25
 144:	85 b9       	out	0x05, r24	; 5
 146:	08 95       	ret
 148:	61 30       	cpi	r22, 0x01	; 1
 14a:	09 f4       	brne	.+2      	; 0x14e <dio_channel_config+0x60>
 14c:	6a c0       	rjmp	.+212    	; 0x222 <dio_channel_config+0x134>
 14e:	66 23       	and	r22, r22
 150:	81 f1       	breq	.+96     	; 0x1b2 <dio_channel_config+0xc4>
 152:	62 30       	cpi	r22, 0x02	; 2
 154:	f1 f6       	brne	.-68     	; 0x112 <dio_channel_config+0x24>
 156:	47 b1       	in	r20, 0x07	; 7
 158:	21 e0       	ldi	r18, 0x01	; 1
 15a:	30 e0       	ldi	r19, 0x00	; 0
 15c:	b9 01       	movw	r22, r18
 15e:	02 c0       	rjmp	.+4      	; 0x164 <dio_channel_config+0x76>
 160:	66 0f       	add	r22, r22
 162:	77 1f       	adc	r23, r23
 164:	9a 95       	dec	r25
 166:	e2 f7       	brpl	.-8      	; 0x160 <dio_channel_config+0x72>
 168:	cb 01       	movw	r24, r22
 16a:	96 2f       	mov	r25, r22
 16c:	90 95       	com	r25
 16e:	94 23       	and	r25, r20
 170:	97 b9       	out	0x07, r25	; 7
 172:	98 b1       	in	r25, 0x08	; 8
 174:	89 2b       	or	r24, r25
 176:	88 b9       	out	0x08, r24	; 8
 178:	08 95       	ret
 17a:	4a b1       	in	r20, 0x0a	; 10
 17c:	21 e0       	ldi	r18, 0x01	; 1
 17e:	30 e0       	ldi	r19, 0x00	; 0
 180:	b9 01       	movw	r22, r18
 182:	02 c0       	rjmp	.+4      	; 0x188 <dio_channel_config+0x9a>
 184:	66 0f       	add	r22, r22
 186:	77 1f       	adc	r23, r23
 188:	9a 95       	dec	r25
 18a:	e2 f7       	brpl	.-8      	; 0x184 <dio_channel_config+0x96>
 18c:	cb 01       	movw	r24, r22
 18e:	80 95       	com	r24
 190:	84 23       	and	r24, r20
 192:	8a b9       	out	0x0a, r24	; 10
 194:	08 95       	ret
 196:	44 b1       	in	r20, 0x04	; 4
 198:	21 e0       	ldi	r18, 0x01	; 1
 19a:	30 e0       	ldi	r19, 0x00	; 0
 19c:	b9 01       	movw	r22, r18
 19e:	02 c0       	rjmp	.+4      	; 0x1a4 <dio_channel_config+0xb6>
 1a0:	66 0f       	add	r22, r22
 1a2:	77 1f       	adc	r23, r23
 1a4:	9a 95       	dec	r25
 1a6:	e2 f7       	brpl	.-8      	; 0x1a0 <dio_channel_config+0xb2>
 1a8:	cb 01       	movw	r24, r22
 1aa:	80 95       	com	r24
 1ac:	84 23       	and	r24, r20
 1ae:	84 b9       	out	0x04, r24	; 4
 1b0:	08 95       	ret
 1b2:	47 b1       	in	r20, 0x07	; 7
 1b4:	21 e0       	ldi	r18, 0x01	; 1
 1b6:	30 e0       	ldi	r19, 0x00	; 0
 1b8:	b9 01       	movw	r22, r18
 1ba:	02 c0       	rjmp	.+4      	; 0x1c0 <dio_channel_config+0xd2>
 1bc:	66 0f       	add	r22, r22
 1be:	77 1f       	adc	r23, r23
 1c0:	9a 95       	dec	r25
 1c2:	e2 f7       	brpl	.-8      	; 0x1bc <dio_channel_config+0xce>
 1c4:	cb 01       	movw	r24, r22
 1c6:	80 95       	com	r24
 1c8:	84 23       	and	r24, r20
 1ca:	87 b9       	out	0x07, r24	; 7
 1cc:	08 95       	ret
 1ce:	4a b1       	in	r20, 0x0a	; 10
 1d0:	21 e0       	ldi	r18, 0x01	; 1
 1d2:	30 e0       	ldi	r19, 0x00	; 0
 1d4:	b9 01       	movw	r22, r18
 1d6:	02 c0       	rjmp	.+4      	; 0x1dc <dio_channel_config+0xee>
 1d8:	66 0f       	add	r22, r22
 1da:	77 1f       	adc	r23, r23
 1dc:	9a 95       	dec	r25
 1de:	e2 f7       	brpl	.-8      	; 0x1d8 <dio_channel_config+0xea>
 1e0:	cb 01       	movw	r24, r22
 1e2:	96 2f       	mov	r25, r22
 1e4:	90 95       	com	r25
 1e6:	94 23       	and	r25, r20
 1e8:	9a b9       	out	0x0a, r25	; 10
 1ea:	9b b1       	in	r25, 0x0b	; 11
 1ec:	89 2b       	or	r24, r25
 1ee:	8b b9       	out	0x0b, r24	; 11
 1f0:	08 95       	ret
 1f2:	44 b1       	in	r20, 0x04	; 4
 1f4:	21 e0       	ldi	r18, 0x01	; 1
 1f6:	30 e0       	ldi	r19, 0x00	; 0
 1f8:	b9 01       	movw	r22, r18
 1fa:	02 c0       	rjmp	.+4      	; 0x200 <dio_channel_config+0x112>
 1fc:	66 0f       	add	r22, r22
 1fe:	77 1f       	adc	r23, r23
 200:	9a 95       	dec	r25
 202:	e2 f7       	brpl	.-8      	; 0x1fc <dio_channel_config+0x10e>
 204:	cb 01       	movw	r24, r22
 206:	84 2b       	or	r24, r20
 208:	d2 cf       	rjmp	.-92     	; 0x1ae <dio_channel_config+0xc0>
 20a:	4a b1       	in	r20, 0x0a	; 10
 20c:	21 e0       	ldi	r18, 0x01	; 1
 20e:	30 e0       	ldi	r19, 0x00	; 0
 210:	b9 01       	movw	r22, r18
 212:	02 c0       	rjmp	.+4      	; 0x218 <dio_channel_config+0x12a>
 214:	66 0f       	add	r22, r22
 216:	77 1f       	adc	r23, r23
 218:	9a 95       	dec	r25
 21a:	e2 f7       	brpl	.-8      	; 0x214 <dio_channel_config+0x126>
 21c:	cb 01       	movw	r24, r22
 21e:	84 2b       	or	r24, r20
 220:	b8 cf       	rjmp	.-144    	; 0x192 <dio_channel_config+0xa4>
 222:	47 b1       	in	r20, 0x07	; 7
 224:	21 e0       	ldi	r18, 0x01	; 1
 226:	30 e0       	ldi	r19, 0x00	; 0
 228:	b9 01       	movw	r22, r18
 22a:	02 c0       	rjmp	.+4      	; 0x230 <dio_channel_config+0x142>
 22c:	66 0f       	add	r22, r22
 22e:	77 1f       	adc	r23, r23
 230:	9a 95       	dec	r25
 232:	e2 f7       	brpl	.-8      	; 0x22c <dio_channel_config+0x13e>
 234:	cb 01       	movw	r24, r22
 236:	84 2b       	or	r24, r20
 238:	c8 cf       	rjmp	.-112    	; 0x1ca <dio_channel_config+0xdc>

Disassembly of section .text.dio_channel_set:

00000368 <dio_channel_set>:
 368:	98 2f       	mov	r25, r24
 36a:	97 70       	andi	r25, 0x07	; 7
 36c:	86 95       	lsr	r24
 36e:	86 95       	lsr	r24
 370:	86 95       	lsr	r24
 372:	81 30       	cpi	r24, 0x01	; 1
 374:	01 f1       	breq	.+64     	; 0x3b6 <dio_channel_set+0x4e>
 376:	60 f0       	brcs	.+24     	; 0x390 <dio_channel_set+0x28>
 378:	82 30       	cpi	r24, 0x02	; 2
 37a:	49 f4       	brne	.+18     	; 0x38e <dio_channel_set+0x26>
 37c:	61 30       	cpi	r22, 0x01	; 1
 37e:	09 f4       	brne	.+2      	; 0x382 <dio_channel_set+0x1a>
 380:	70 c0       	rjmp	.+224    	; 0x462 <__EEPROM_REGION_LENGTH__+0x62>
 382:	66 23       	and	r22, r22
 384:	59 f1       	breq	.+86     	; 0x3dc <dio_channel_set+0x74>
 386:	62 30       	cpi	r22, 0x02	; 2
 388:	09 f4       	brne	.+2      	; 0x38c <dio_channel_set+0x24>
 38a:	52 c0       	rjmp	.+164    	; 0x430 <__EEPROM_REGION_LENGTH__+0x30>
 38c:	08 95       	ret
 38e:	08 95       	ret
 390:	61 30       	cpi	r22, 0x01	; 1
 392:	09 f4       	brne	.+2      	; 0x396 <dio_channel_set+0x2e>
 394:	5a c0       	rjmp	.+180    	; 0x44a <__EEPROM_REGION_LENGTH__+0x4a>
 396:	66 23       	and	r22, r22
 398:	79 f1       	breq	.+94     	; 0x3f8 <dio_channel_set+0x90>
 39a:	62 30       	cpi	r22, 0x02	; 2
 39c:	b9 f7       	brne	.-18     	; 0x38c <dio_channel_set+0x24>
 39e:	45 b1       	in	r20, 0x05	; 5
 3a0:	21 e0       	ldi	r18, 0x01	; 1
 3a2:	30 e0       	ldi	r19, 0x00	; 0
 3a4:	b9 01       	movw	r22, r18
 3a6:	02 c0       	rjmp	.+4      	; 0x3ac <dio_channel_set+0x44>
 3a8:	66 0f       	add	r22, r22
 3aa:	77 1f       	adc	r23, r23
 3ac:	9a 95       	dec	r25
 3ae:	e2 f7       	brpl	.-8      	; 0x3a8 <dio_channel_set+0x40>
 3b0:	cb 01       	movw	r24, r22
 3b2:	84 27       	eor	r24, r20
 3b4:	2d c0       	rjmp	.+90     	; 0x410 <__EEPROM_REGION_LENGTH__+0x10>
 3b6:	61 30       	cpi	r22, 0x01	; 1
 3b8:	09 f4       	brne	.+2      	; 0x3bc <dio_channel_set+0x54>
 3ba:	60 c0       	rjmp	.+192    	; 0x47c <__EEPROM_REGION_LENGTH__+0x7c>
 3bc:	66 23       	and	r22, r22
 3be:	51 f1       	breq	.+84     	; 0x414 <__EEPROM_REGION_LENGTH__+0x14>
 3c0:	62 30       	cpi	r22, 0x02	; 2
 3c2:	21 f7       	brne	.-56     	; 0x38c <dio_channel_set+0x24>
 3c4:	48 b1       	in	r20, 0x08	; 8
 3c6:	21 e0       	ldi	r18, 0x01	; 1
 3c8:	30 e0       	ldi	r19, 0x00	; 0
 3ca:	b9 01       	movw	r22, r18
 3cc:	02 c0       	rjmp	.+4      	; 0x3d2 <dio_channel_set+0x6a>
 3ce:	66 0f       	add	r22, r22
 3d0:	77 1f       	adc	r23, r23
 3d2:	9a 95       	dec	r25
 3d4:	e2 f7       	brpl	.-8      	; 0x3ce <dio_channel_set+0x66>
 3d6:	cb 01       	movw	r24, r22
 3d8:	84 27       	eor	r24, r20
 3da:	28 c0       	rjmp	.+80     	; 0x42c <__EEPROM_REGION_LENGTH__+0x2c>
 3dc:	4b b1       	in	r20, 0x0b	; 11
 3de:	21 e0       	ldi	r18, 0x01	; 1
 3e0:	30 e0       	ldi	r19, 0x00	; 0
 3e2:	b9 01       	movw	r22, r18
 3e4:	02 c0       	rjmp	.+4      	; 0x3ea <dio_channel_set+0x82>
 3e6:	66 0f       	add	r22, r22
 3e8:	77 1f       	adc	r23, r23
 3ea:	9a 95       	dec	r25
 3ec:	e2 f7       	brpl	.-8      	; 0x3e6 <dio_channel_set+0x7e>
 3ee:	cb 01       	movw	r24, r22
 3f0:	80 95       	com	r24
 3f2:	84 23       	and	r24, r20
 3f4:	8b b9       	out	0x0b, r24	; 11
 3f6:	08 95       	ret
 3f8:	45 b1       	in	r20, 0x05	; 5
 3fa:	21 e0       	ldi	r18, 0x01	; 1
 3fc:	30 e0       	ldi	r19, 0x00	; 0
 3fe:	b9 01       	movw	r22, r18
 400:	02 c0       	rjmp	.+4      	; 0x406 <__EEPROM_REGION_LENGTH__+0x6>
 402:	66 0f       	add	r22, r22
 404:	77 1f       	adc	r23, r23
 406:	9a 95       	dec	r25
 408:	e2 f7       	brpl	.-8      	; 0x402 <__EEPROM_REGION_LENGTH__+0x2>
 40a:	cb 01       	movw	r24, r22
 40c:	80 95       	com	r24
 40e:	84 23       	and	r24, r20
 410:	85 b9       	out	0x05, r24	; 5
 412:	08 95       	ret
 414:	48 b1       	in	r20, 0x08	; 8
 416:	21 e0       	ldi	r18, 0x01	; 1
 418:	30 e0       	ldi	r19, 0x00	; 0
 41a:	b9 01       	movw	r22, r18
 41c:	02 c0       	rjmp	.+4      	; 0x422 <__EEPROM_REGION_LENGTH__+0x22>
 41e:	66 0f       	add	r22, r22
 420:	77 1f       	adc	r23, r23
 422:	9a 95       	dec	r25
 424:	e2 f7       	brpl	.-8      	; 0x41e <__EEPROM_REGION_LENGTH__+0x1e>
 426:	cb 01       	movw	r24, r22
 428:	80 95       	com	r24
 42a:	84 23       	and	r24, r20
 42c:	88 b9       	out	0x08, r24	; 8
 42e:	08 95       	ret
 430:	4b b1       	in	r20, 0x0b	; 11
 432:	21 e0       	ldi	r18, 0x01	; 1
 434:	30 e0       	ldi	r19, 0x00	; 0
 436:	b9 01       	movw	r22, r18
 438:	02 c0       	rjmp	.+4      	; 0x43e <__EEPROM_REGION_LENGTH__+0x3e>
 43a:	66 0f       	add	r22, r22
 43c:	77 1f       	adc	r23, r23
 43e:	9a 95       	dec	r25
 440:	e2 f7       	brpl	.-8      	; 0x43a <__EEPROM_REGION_LENGTH__+0x3a>
 442:	cb 01       	movw	r24, r22
 444:	84 27       	eor	r24, r20
 446:	8b b9       	out	0x0b, r24	; 11
 448:	d6 cf       	rjmp	.-84     	; 0x3f6 <dio_channel_set+0x8e>
 44a:	45 b1       	in	r20, 0x05	; 5
 44c:	21 e0       	ldi	r18, 0x01	; 1
 44e:	30 e0       	ldi	r19, 0x00	; 0
 450:	b9 01       	movw	r22, r18
 452:	02 c0       	rjmp	.+4      	; 0x458 <__EEPROM_REGION_LENGTH__+0x58>
 454:	66 0f       	add	r22, r22
 456:	77 1f       	adc	r23, r23
 458:	9a 95       	dec	r25
 45a:	e2 f7       	brpl	.-8      	; 0x454 <__EEPROM_REGION_LENGTH__+0x54>
 45c:	cb 01       	movw	r24, r22
 45e:	84 2b       	or	r24, r20
 460:	d7 cf       	rjmp	.-82     	; 0x410 <__EEPROM_REGION_LENGTH__+0x10>
 462:	4b b1       	in	r20, 0x0b	; 11
 464:	21 e0       	ldi	r18, 0x01	; 1
 466:	30 e0       	ldi	r19, 0x00	; 0
 468:	b9 01       	movw	r22, r18
 46a:	02 c0       	rjmp	.+4      	; 0x470 <__EEPROM_REGION_LENGTH__+0x70>
 46c:	66 0f       	add	r22, r22
 46e:	77 1f       	adc	r23, r23
 470:	9a 95       	dec	r25
 472:	e2 f7       	brpl	.-8      	; 0x46c <__EEPROM_REGION_LENGTH__+0x6c>
 474:	cb 01       	movw	r24, r22
 476:	84 2b       	or	r24, r20
 478:	8b b9       	out	0x0b, r24	; 11
 47a:	bd cf       	rjmp	.-134    	; 0x3f6 <dio_channel_set+0x8e>
 47c:	48 b1       	in	r20, 0x08	; 8
 47e:	21 e0       	ldi	r18, 0x01	; 1
 480:	30 e0       	ldi	r19, 0x00	; 0
 482:	b9 01       	movw	r22, r18
 484:	02 c0       	rjmp	.+4      	; 0x48a <__EEPROM_REGION_LENGTH__+0x8a>
 486:	66 0f       	add	r22, r22
 488:	77 1f       	adc	r23, r23
 48a:	9a 95       	dec	r25
 48c:	e2 f7       	brpl	.-8      	; 0x486 <__EEPROM_REGION_LENGTH__+0x86>
 48e:	cb 01       	movw	r24, r22
 490:	84 2b       	or	r24, r20
 492:	cc cf       	rjmp	.-104    	; 0x42c <__EEPROM_REGION_LENGTH__+0x2c>

Disassembly of section .text.dio_channel_read:

000012d4 <dio_channel_read>:
    12d4:	48 2f       	mov	r20, r24
    12d6:	47 70       	andi	r20, 0x07	; 7
    12d8:	86 95       	lsr	r24
    12da:	86 95       	lsr	r24
    12dc:	86 95       	lsr	r24
    12de:	81 30       	cpi	r24, 0x01	; 1
    12e0:	c9 f0       	breq	.+50     	; 0x1314 <dio_channel_read+0x40>
    12e2:	b0 f0       	brcs	.+44     	; 0x1310 <dio_channel_read+0x3c>
    12e4:	82 30       	cpi	r24, 0x02	; 2
    12e6:	91 f4       	brne	.+36     	; 0x130c <dio_channel_read+0x38>
    12e8:	29 b1       	in	r18, 0x09	; 9
    12ea:	81 e0       	ldi	r24, 0x01	; 1
    12ec:	90 e0       	ldi	r25, 0x00	; 0
    12ee:	04 2e       	mov	r0, r20
    12f0:	02 c0       	rjmp	.+4      	; 0x12f6 <dio_channel_read+0x22>
    12f2:	88 0f       	add	r24, r24
    12f4:	99 1f       	adc	r25, r25
    12f6:	0a 94       	dec	r0
    12f8:	e2 f7       	brpl	.-8      	; 0x12f2 <dio_channel_read+0x1e>
    12fa:	30 e0       	ldi	r19, 0x00	; 0
    12fc:	82 23       	and	r24, r18
    12fe:	93 23       	and	r25, r19
    1300:	02 c0       	rjmp	.+4      	; 0x1306 <dio_channel_read+0x32>
    1302:	95 95       	asr	r25
    1304:	87 95       	ror	r24
    1306:	4a 95       	dec	r20
    1308:	e2 f7       	brpl	.-8      	; 0x1302 <dio_channel_read+0x2e>
    130a:	08 95       	ret
    130c:	80 e0       	ldi	r24, 0x00	; 0
    130e:	08 95       	ret
    1310:	23 b1       	in	r18, 0x03	; 3
    1312:	eb cf       	rjmp	.-42     	; 0x12ea <dio_channel_read+0x16>
    1314:	26 b1       	in	r18, 0x06	; 6
    1316:	e9 cf       	rjmp	.-46     	; 0x12ea <dio_channel_read+0x16>

Disassembly of section .text.dio_port_config:

00001894 <dio_port_config>:
    1894:	81 30       	cpi	r24, 0x01	; 1
    1896:	41 f0       	breq	.+16     	; 0x18a8 <dio_port_config+0x14>
    1898:	28 f0       	brcs	.+10     	; 0x18a4 <dio_port_config+0x10>
    189a:	82 30       	cpi	r24, 0x02	; 2
    189c:	11 f4       	brne	.+4      	; 0x18a2 <dio_port_config+0xe>
    189e:	6a b9       	out	0x0a, r22	; 10
    18a0:	08 95       	ret
    18a2:	08 95       	ret
    18a4:	64 b9       	out	0x04, r22	; 4
    18a6:	08 95       	ret
    18a8:	67 b9       	out	0x07, r22	; 7
    18aa:	08 95       	ret

Disassembly of section .text.dio_port_set:

000018ac <dio_port_set>:
    18ac:	81 30       	cpi	r24, 0x01	; 1
    18ae:	41 f0       	breq	.+16     	; 0x18c0 <dio_port_set+0x14>
    18b0:	28 f0       	brcs	.+10     	; 0x18bc <dio_port_set+0x10>
    18b2:	82 30       	cpi	r24, 0x02	; 2
    18b4:	11 f4       	brne	.+4      	; 0x18ba <dio_port_set+0xe>
    18b6:	6b b9       	out	0x0b, r22	; 11
    18b8:	08 95       	ret
    18ba:	08 95       	ret
    18bc:	65 b9       	out	0x05, r22	; 5
    18be:	08 95       	ret
    18c0:	68 b9       	out	0x08, r22	; 8
    18c2:	08 95       	ret

Disassembly of section .text.display_digit_private:

000011a6 <display_digit_private>:
    11a6:	cf 93       	push	r28
    11a8:	c8 2f       	mov	r28, r24
    11aa:	68 2f       	mov	r22, r24
    11ac:	61 70       	andi	r22, 0x01	; 1
    11ae:	80 e1       	ldi	r24, 0x10	; 16
    11b0:	0e 94 b4 01 	call	0x368	; 0x368 <dio_channel_set>
    11b4:	c1 fb       	bst	r28, 1
    11b6:	66 27       	eor	r22, r22
    11b8:	60 f9       	bld	r22, 0
    11ba:	81 e1       	ldi	r24, 0x11	; 17
    11bc:	0e 94 b4 01 	call	0x368	; 0x368 <dio_channel_set>
    11c0:	c2 fb       	bst	r28, 2
    11c2:	66 27       	eor	r22, r22
    11c4:	60 f9       	bld	r22, 0
    11c6:	82 e1       	ldi	r24, 0x12	; 18
    11c8:	0e 94 b4 01 	call	0x368	; 0x368 <dio_channel_set>
    11cc:	c3 fb       	bst	r28, 3
    11ce:	66 27       	eor	r22, r22
    11d0:	60 f9       	bld	r22, 0
    11d2:	83 e1       	ldi	r24, 0x13	; 19
    11d4:	0e 94 b4 01 	call	0x368	; 0x368 <dio_channel_set>
    11d8:	c4 fb       	bst	r28, 4
    11da:	66 27       	eor	r22, r22
    11dc:	60 f9       	bld	r22, 0
    11de:	84 e1       	ldi	r24, 0x14	; 20
    11e0:	0e 94 b4 01 	call	0x368	; 0x368 <dio_channel_set>
    11e4:	c5 fb       	bst	r28, 5
    11e6:	66 27       	eor	r22, r22
    11e8:	60 f9       	bld	r22, 0
    11ea:	85 e1       	ldi	r24, 0x15	; 21
    11ec:	0e 94 b4 01 	call	0x368	; 0x368 <dio_channel_set>
    11f0:	c6 fb       	bst	r28, 6
    11f2:	66 27       	eor	r22, r22
    11f4:	60 f9       	bld	r22, 0
    11f6:	86 e1       	ldi	r24, 0x16	; 22
    11f8:	cf 91       	pop	r28
    11fa:	0c 94 b4 01 	jmp	0x368	; 0x368 <dio_channel_set>

Disassembly of section .text.init_seven_segment:

00001460 <init_seven_segment>:
    1460:	61 e0       	ldi	r22, 0x01	; 1
    1462:	80 e1       	ldi	r24, 0x10	; 16
    1464:	0e 94 77 00 	call	0xee	; 0xee <__data_load_end>
    1468:	61 e0       	ldi	r22, 0x01	; 1
    146a:	81 e1       	ldi	r24, 0x11	; 17
    146c:	0e 94 77 00 	call	0xee	; 0xee <__data_load_end>
    1470:	61 e0       	ldi	r22, 0x01	; 1
    1472:	82 e1       	ldi	r24, 0x12	; 18
    1474:	0e 94 77 00 	call	0xee	; 0xee <__data_load_end>
    1478:	61 e0       	ldi	r22, 0x01	; 1
    147a:	83 e1       	ldi	r24, 0x13	; 19
    147c:	0e 94 77 00 	call	0xee	; 0xee <__data_load_end>
    1480:	61 e0       	ldi	r22, 0x01	; 1
    1482:	84 e1       	ldi	r24, 0x14	; 20
    1484:	0e 94 77 00 	call	0xee	; 0xee <__data_load_end>
    1488:	61 e0       	ldi	r22, 0x01	; 1
    148a:	85 e1       	ldi	r24, 0x15	; 21
    148c:	0e 94 77 00 	call	0xee	; 0xee <__data_load_end>
    1490:	61 e0       	ldi	r22, 0x01	; 1
    1492:	86 e1       	ldi	r24, 0x16	; 22
    1494:	0e 94 77 00 	call	0xee	; 0xee <__data_load_end>
    1498:	80 e0       	ldi	r24, 0x00	; 0
    149a:	0c 94 d3 08 	jmp	0x11a6	; 0x11a6 <display_digit_private>

Disassembly of section .text.display_digit:

0000192e <display_digit>:
    192e:	8a 30       	cpi	r24, 0x0A	; 10
    1930:	08 f0       	brcs	.+2      	; 0x1934 <display_digit+0x6>
    1932:	08 95       	ret
    1934:	e8 2f       	mov	r30, r24
    1936:	f0 e0       	ldi	r31, 0x00	; 0
    1938:	e4 58       	subi	r30, 0x84	; 132
    193a:	fe 4f       	sbci	r31, 0xFE	; 254
    193c:	80 81       	ld	r24, Z
    193e:	0c 94 d3 08 	jmp	0x11a6	; 0x11a6 <display_digit_private>

Disassembly of section .text.send_instruction_4bit:

0000108a <send_instruction_4bit>:
    108a:	cf 93       	push	r28
    108c:	c8 2f       	mov	r28, r24
    108e:	60 e0       	ldi	r22, 0x00	; 0
    1090:	80 e0       	ldi	r24, 0x00	; 0
    1092:	0e 94 b4 01 	call	0x368	; 0x368 <dio_channel_set>
    1096:	6c 2f       	mov	r22, r28
    1098:	61 70       	andi	r22, 0x01	; 1
    109a:	82 e0       	ldi	r24, 0x02	; 2
    109c:	0e 94 b4 01 	call	0x368	; 0x368 <dio_channel_set>
    10a0:	c1 fb       	bst	r28, 1
    10a2:	66 27       	eor	r22, r22
    10a4:	60 f9       	bld	r22, 0
    10a6:	83 e0       	ldi	r24, 0x03	; 3
    10a8:	0e 94 b4 01 	call	0x368	; 0x368 <dio_channel_set>
    10ac:	c2 fb       	bst	r28, 2
    10ae:	66 27       	eor	r22, r22
    10b0:	60 f9       	bld	r22, 0
    10b2:	84 e0       	ldi	r24, 0x04	; 4
    10b4:	0e 94 b4 01 	call	0x368	; 0x368 <dio_channel_set>
    10b8:	c3 fb       	bst	r28, 3
    10ba:	66 27       	eor	r22, r22
    10bc:	60 f9       	bld	r22, 0
    10be:	85 e0       	ldi	r24, 0x05	; 5
    10c0:	0e 94 b4 01 	call	0x368	; 0x368 <dio_channel_set>
    10c4:	61 e0       	ldi	r22, 0x01	; 1
    10c6:	81 e0       	ldi	r24, 0x01	; 1
    10c8:	0e 94 b4 01 	call	0x368	; 0x368 <dio_channel_set>
    10cc:	82 e0       	ldi	r24, 0x02	; 2
    10ce:	8a 95       	dec	r24
    10d0:	f1 f7       	brne	.-4      	; 0x10ce <send_instruction_4bit+0x44>
    10d2:	00 c0       	rjmp	.+0      	; 0x10d4 <send_instruction_4bit+0x4a>
    10d4:	60 e0       	ldi	r22, 0x00	; 0
    10d6:	81 e0       	ldi	r24, 0x01	; 1
    10d8:	0e 94 b4 01 	call	0x368	; 0x368 <dio_channel_set>
    10dc:	8f e8       	ldi	r24, 0x8F	; 143
    10de:	91 e0       	ldi	r25, 0x01	; 1
    10e0:	01 97       	sbiw	r24, 0x01	; 1
    10e2:	f1 f7       	brne	.-4      	; 0x10e0 <send_instruction_4bit+0x56>
    10e4:	00 c0       	rjmp	.+0      	; 0x10e6 <send_instruction_4bit+0x5c>
    10e6:	00 00       	nop
    10e8:	cf 91       	pop	r28
    10ea:	08 95       	ret

Disassembly of section .text.send_instruction_8bit:

0000090a <send_instruction_8bit>:
 90a:	cf 93       	push	r28
 90c:	c8 2f       	mov	r28, r24
 90e:	60 e0       	ldi	r22, 0x00	; 0
 910:	80 e0       	ldi	r24, 0x00	; 0
 912:	0e 94 b4 01 	call	0x368	; 0x368 <dio_channel_set>
 916:	c4 fb       	bst	r28, 4
 918:	66 27       	eor	r22, r22
 91a:	60 f9       	bld	r22, 0
 91c:	82 e0       	ldi	r24, 0x02	; 2
 91e:	0e 94 b4 01 	call	0x368	; 0x368 <dio_channel_set>
 922:	c5 fb       	bst	r28, 5
 924:	66 27       	eor	r22, r22
 926:	60 f9       	bld	r22, 0
 928:	83 e0       	ldi	r24, 0x03	; 3
 92a:	0e 94 b4 01 	call	0x368	; 0x368 <dio_channel_set>
 92e:	c6 fb       	bst	r28, 6
 930:	66 27       	eor	r22, r22
 932:	60 f9       	bld	r22, 0
 934:	84 e0       	ldi	r24, 0x04	; 4
 936:	0e 94 b4 01 	call	0x368	; 0x368 <dio_channel_set>
 93a:	6c 2f       	mov	r22, r28
 93c:	66 1f       	adc	r22, r22
 93e:	66 27       	eor	r22, r22
 940:	66 1f       	adc	r22, r22
 942:	85 e0       	ldi	r24, 0x05	; 5
 944:	0e 94 b4 01 	call	0x368	; 0x368 <dio_channel_set>
 948:	61 e0       	ldi	r22, 0x01	; 1
 94a:	81 e0       	ldi	r24, 0x01	; 1
 94c:	0e 94 b4 01 	call	0x368	; 0x368 <dio_channel_set>
 950:	82 e0       	ldi	r24, 0x02	; 2
 952:	8a 95       	dec	r24
 954:	f1 f7       	brne	.-4      	; 0x952 <send_instruction_8bit+0x48>
 956:	00 c0       	rjmp	.+0      	; 0x958 <send_instruction_8bit+0x4e>
 958:	60 e0       	ldi	r22, 0x00	; 0
 95a:	81 e0       	ldi	r24, 0x01	; 1
 95c:	0e 94 b4 01 	call	0x368	; 0x368 <dio_channel_set>
 960:	8f e8       	ldi	r24, 0x8F	; 143
 962:	91 e0       	ldi	r25, 0x01	; 1
 964:	01 97       	sbiw	r24, 0x01	; 1
 966:	f1 f7       	brne	.-4      	; 0x964 <send_instruction_8bit+0x5a>
 968:	00 c0       	rjmp	.+0      	; 0x96a <send_instruction_8bit+0x60>
 96a:	00 00       	nop
 96c:	6c 2f       	mov	r22, r28
 96e:	61 70       	andi	r22, 0x01	; 1
 970:	82 e0       	ldi	r24, 0x02	; 2
 972:	0e 94 b4 01 	call	0x368	; 0x368 <dio_channel_set>
 976:	c1 fb       	bst	r28, 1
 978:	66 27       	eor	r22, r22
 97a:	60 f9       	bld	r22, 0
 97c:	83 e0       	ldi	r24, 0x03	; 3
 97e:	0e 94 b4 01 	call	0x368	; 0x368 <dio_channel_set>
 982:	c2 fb       	bst	r28, 2
 984:	66 27       	eor	r22, r22
 986:	60 f9       	bld	r22, 0
 988:	84 e0       	ldi	r24, 0x04	; 4
 98a:	0e 94 b4 01 	call	0x368	; 0x368 <dio_channel_set>
 98e:	c3 fb       	bst	r28, 3
 990:	66 27       	eor	r22, r22
 992:	60 f9       	bld	r22, 0
 994:	85 e0       	ldi	r24, 0x05	; 5
 996:	0e 94 b4 01 	call	0x368	; 0x368 <dio_channel_set>
 99a:	61 e0       	ldi	r22, 0x01	; 1
 99c:	81 e0       	ldi	r24, 0x01	; 1
 99e:	0e 94 b4 01 	call	0x368	; 0x368 <dio_channel_set>
 9a2:	92 e0       	ldi	r25, 0x02	; 2
 9a4:	9a 95       	dec	r25
 9a6:	f1 f7       	brne	.-4      	; 0x9a4 <send_instruction_8bit+0x9a>
 9a8:	00 c0       	rjmp	.+0      	; 0x9aa <send_instruction_8bit+0xa0>
 9aa:	60 e0       	ldi	r22, 0x00	; 0
 9ac:	81 e0       	ldi	r24, 0x01	; 1
 9ae:	0e 94 b4 01 	call	0x368	; 0x368 <dio_channel_set>
 9b2:	8f e8       	ldi	r24, 0x8F	; 143
 9b4:	91 e0       	ldi	r25, 0x01	; 1
 9b6:	01 97       	sbiw	r24, 0x01	; 1
 9b8:	f1 f7       	brne	.-4      	; 0x9b6 <send_instruction_8bit+0xac>
 9ba:	00 c0       	rjmp	.+0      	; 0x9bc <send_instruction_8bit+0xb2>
 9bc:	00 00       	nop
 9be:	cf 91       	pop	r28
 9c0:	08 95       	ret

Disassembly of section .text.send_data_8bit:

000009c2 <send_data_8bit>:
 9c2:	cf 93       	push	r28
 9c4:	c8 2f       	mov	r28, r24
 9c6:	61 e0       	ldi	r22, 0x01	; 1
 9c8:	80 e0       	ldi	r24, 0x00	; 0
 9ca:	0e 94 b4 01 	call	0x368	; 0x368 <dio_channel_set>
 9ce:	c4 fb       	bst	r28, 4
 9d0:	66 27       	eor	r22, r22
 9d2:	60 f9       	bld	r22, 0
 9d4:	82 e0       	ldi	r24, 0x02	; 2
 9d6:	0e 94 b4 01 	call	0x368	; 0x368 <dio_channel_set>
 9da:	c5 fb       	bst	r28, 5
 9dc:	66 27       	eor	r22, r22
 9de:	60 f9       	bld	r22, 0
 9e0:	83 e0       	ldi	r24, 0x03	; 3
 9e2:	0e 94 b4 01 	call	0x368	; 0x368 <dio_channel_set>
 9e6:	c6 fb       	bst	r28, 6
 9e8:	66 27       	eor	r22, r22
 9ea:	60 f9       	bld	r22, 0
 9ec:	84 e0       	ldi	r24, 0x04	; 4
 9ee:	0e 94 b4 01 	call	0x368	; 0x368 <dio_channel_set>
 9f2:	6c 2f       	mov	r22, r28
 9f4:	66 1f       	adc	r22, r22
 9f6:	66 27       	eor	r22, r22
 9f8:	66 1f       	adc	r22, r22
 9fa:	85 e0       	ldi	r24, 0x05	; 5
 9fc:	0e 94 b4 01 	call	0x368	; 0x368 <dio_channel_set>
 a00:	61 e0       	ldi	r22, 0x01	; 1
 a02:	81 e0       	ldi	r24, 0x01	; 1
 a04:	0e 94 b4 01 	call	0x368	; 0x368 <dio_channel_set>
 a08:	82 e0       	ldi	r24, 0x02	; 2
 a0a:	8a 95       	dec	r24
 a0c:	f1 f7       	brne	.-4      	; 0xa0a <send_data_8bit+0x48>
 a0e:	00 c0       	rjmp	.+0      	; 0xa10 <send_data_8bit+0x4e>
 a10:	60 e0       	ldi	r22, 0x00	; 0
 a12:	81 e0       	ldi	r24, 0x01	; 1
 a14:	0e 94 b4 01 	call	0x368	; 0x368 <dio_channel_set>
 a18:	8f e8       	ldi	r24, 0x8F	; 143
 a1a:	91 e0       	ldi	r25, 0x01	; 1
 a1c:	01 97       	sbiw	r24, 0x01	; 1
 a1e:	f1 f7       	brne	.-4      	; 0xa1c <send_data_8bit+0x5a>
 a20:	00 c0       	rjmp	.+0      	; 0xa22 <send_data_8bit+0x60>
 a22:	00 00       	nop
 a24:	6c 2f       	mov	r22, r28
 a26:	61 70       	andi	r22, 0x01	; 1
 a28:	82 e0       	ldi	r24, 0x02	; 2
 a2a:	0e 94 b4 01 	call	0x368	; 0x368 <dio_channel_set>
 a2e:	c1 fb       	bst	r28, 1
 a30:	66 27       	eor	r22, r22
 a32:	60 f9       	bld	r22, 0
 a34:	83 e0       	ldi	r24, 0x03	; 3
 a36:	0e 94 b4 01 	call	0x368	; 0x368 <dio_channel_set>
 a3a:	c2 fb       	bst	r28, 2
 a3c:	66 27       	eor	r22, r22
 a3e:	60 f9       	bld	r22, 0
 a40:	84 e0       	ldi	r24, 0x04	; 4
 a42:	0e 94 b4 01 	call	0x368	; 0x368 <dio_channel_set>
 a46:	c3 fb       	bst	r28, 3
 a48:	66 27       	eor	r22, r22
 a4a:	60 f9       	bld	r22, 0
 a4c:	85 e0       	ldi	r24, 0x05	; 5
 a4e:	0e 94 b4 01 	call	0x368	; 0x368 <dio_channel_set>
 a52:	61 e0       	ldi	r22, 0x01	; 1
 a54:	81 e0       	ldi	r24, 0x01	; 1
 a56:	0e 94 b4 01 	call	0x368	; 0x368 <dio_channel_set>
 a5a:	92 e0       	ldi	r25, 0x02	; 2
 a5c:	9a 95       	dec	r25
 a5e:	f1 f7       	brne	.-4      	; 0xa5c <send_data_8bit+0x9a>
 a60:	00 c0       	rjmp	.+0      	; 0xa62 <send_data_8bit+0xa0>
 a62:	60 e0       	ldi	r22, 0x00	; 0
 a64:	81 e0       	ldi	r24, 0x01	; 1
 a66:	0e 94 b4 01 	call	0x368	; 0x368 <dio_channel_set>
 a6a:	8f e8       	ldi	r24, 0x8F	; 143
 a6c:	91 e0       	ldi	r25, 0x01	; 1
 a6e:	01 97       	sbiw	r24, 0x01	; 1
 a70:	f1 f7       	brne	.-4      	; 0xa6e <send_data_8bit+0xac>
 a72:	00 c0       	rjmp	.+0      	; 0xa74 <send_data_8bit+0xb2>
 a74:	00 00       	nop
 a76:	cf 91       	pop	r28
 a78:	08 95       	ret

Disassembly of section .text.init_lcd:

00000a7a <init_lcd>:
 a7a:	61 e0       	ldi	r22, 0x01	; 1
 a7c:	80 e0       	ldi	r24, 0x00	; 0
 a7e:	0e 94 77 00 	call	0xee	; 0xee <__data_load_end>
 a82:	61 e0       	ldi	r22, 0x01	; 1
 a84:	81 e0       	ldi	r24, 0x01	; 1
 a86:	0e 94 77 00 	call	0xee	; 0xee <__data_load_end>
 a8a:	61 e0       	ldi	r22, 0x01	; 1
 a8c:	82 e0       	ldi	r24, 0x02	; 2
 a8e:	0e 94 77 00 	call	0xee	; 0xee <__data_load_end>
 a92:	61 e0       	ldi	r22, 0x01	; 1
 a94:	83 e0       	ldi	r24, 0x03	; 3
 a96:	0e 94 77 00 	call	0xee	; 0xee <__data_load_end>
 a9a:	61 e0       	ldi	r22, 0x01	; 1
 a9c:	84 e0       	ldi	r24, 0x04	; 4
 a9e:	0e 94 77 00 	call	0xee	; 0xee <__data_load_end>
 aa2:	61 e0       	ldi	r22, 0x01	; 1
 aa4:	85 e0       	ldi	r24, 0x05	; 5
 aa6:	0e 94 77 00 	call	0xee	; 0xee <__data_load_end>
 aaa:	60 e0       	ldi	r22, 0x00	; 0
 aac:	81 e0       	ldi	r24, 0x01	; 1
 aae:	0e 94 b4 01 	call	0x368	; 0x368 <dio_channel_set>
 ab2:	2f ef       	ldi	r18, 0xFF	; 255
 ab4:	89 ef       	ldi	r24, 0xF9	; 249
 ab6:	90 e0       	ldi	r25, 0x00	; 0
 ab8:	21 50       	subi	r18, 0x01	; 1
 aba:	80 40       	sbci	r24, 0x00	; 0
 abc:	90 40       	sbci	r25, 0x00	; 0
 abe:	e1 f7       	brne	.-8      	; 0xab8 <init_lcd+0x3e>
 ac0:	00 c0       	rjmp	.+0      	; 0xac2 <init_lcd+0x48>
 ac2:	00 00       	nop
 ac4:	83 e0       	ldi	r24, 0x03	; 3
 ac6:	0e 94 45 08 	call	0x108a	; 0x108a <send_instruction_4bit>
 aca:	8f e1       	ldi	r24, 0x1F	; 31
 acc:	9e e4       	ldi	r25, 0x4E	; 78
 ace:	01 97       	sbiw	r24, 0x01	; 1
 ad0:	f1 f7       	brne	.-4      	; 0xace <init_lcd+0x54>
 ad2:	00 c0       	rjmp	.+0      	; 0xad4 <init_lcd+0x5a>
 ad4:	00 00       	nop
 ad6:	83 e0       	ldi	r24, 0x03	; 3
 ad8:	0e 94 45 08 	call	0x108a	; 0x108a <send_instruction_4bit>
 adc:	8f e1       	ldi	r24, 0x1F	; 31
 ade:	93 e0       	ldi	r25, 0x03	; 3
 ae0:	01 97       	sbiw	r24, 0x01	; 1
 ae2:	f1 f7       	brne	.-4      	; 0xae0 <init_lcd+0x66>
 ae4:	00 c0       	rjmp	.+0      	; 0xae6 <init_lcd+0x6c>
 ae6:	00 00       	nop
 ae8:	83 e0       	ldi	r24, 0x03	; 3
 aea:	0e 94 45 08 	call	0x108a	; 0x108a <send_instruction_4bit>
 aee:	82 e0       	ldi	r24, 0x02	; 2
 af0:	0e 94 45 08 	call	0x108a	; 0x108a <send_instruction_4bit>
 af4:	88 e2       	ldi	r24, 0x28	; 40
 af6:	0e 94 85 04 	call	0x90a	; 0x90a <send_instruction_8bit>
 afa:	87 ec       	ldi	r24, 0xC7	; 199
 afc:	90 e0       	ldi	r25, 0x00	; 0
 afe:	01 97       	sbiw	r24, 0x01	; 1
 b00:	f1 f7       	brne	.-4      	; 0xafe <init_lcd+0x84>
 b02:	00 c0       	rjmp	.+0      	; 0xb04 <init_lcd+0x8a>
 b04:	00 00       	nop
 b06:	88 e0       	ldi	r24, 0x08	; 8
 b08:	0e 94 85 04 	call	0x90a	; 0x90a <send_instruction_8bit>
 b0c:	81 e0       	ldi	r24, 0x01	; 1
 b0e:	0e 94 85 04 	call	0x90a	; 0x90a <send_instruction_8bit>
 b12:	86 e0       	ldi	r24, 0x06	; 6
 b14:	0e 94 85 04 	call	0x90a	; 0x90a <send_instruction_8bit>
 b18:	8f e3       	ldi	r24, 0x3F	; 63
 b1a:	9c e9       	ldi	r25, 0x9C	; 156
 b1c:	01 97       	sbiw	r24, 0x01	; 1
 b1e:	f1 f7       	brne	.-4      	; 0xb1c <init_lcd+0xa2>
 b20:	00 c0       	rjmp	.+0      	; 0xb22 <init_lcd+0xa8>
 b22:	00 00       	nop
 b24:	8c e0       	ldi	r24, 0x0C	; 12
 b26:	0c 94 85 04 	jmp	0x90a	; 0x90a <send_instruction_8bit>

Disassembly of section .text.lcd_write_text:

000011fe <lcd_write_text>:
    11fe:	0f 93       	push	r16
    1200:	1f 93       	push	r17
    1202:	cf 93       	push	r28
    1204:	8c 01       	movw	r16, r24
    1206:	84 2f       	mov	r24, r20
    1208:	90 e4       	ldi	r25, 0x40	; 64
    120a:	69 9f       	mul	r22, r25
    120c:	80 0d       	add	r24, r0
    120e:	11 24       	eor	r1, r1
    1210:	81 54       	subi	r24, 0x41	; 65
    1212:	80 68       	ori	r24, 0x80	; 128
    1214:	0e 94 85 04 	call	0x90a	; 0x90a <send_instruction_8bit>
    1218:	ef e8       	ldi	r30, 0x8F	; 143
    121a:	f1 e0       	ldi	r31, 0x01	; 1
    121c:	31 97       	sbiw	r30, 0x01	; 1
    121e:	f1 f7       	brne	.-4      	; 0x121c <lcd_write_text+0x1e>
    1220:	00 c0       	rjmp	.+0      	; 0x1222 <lcd_write_text+0x24>
    1222:	00 00       	nop
    1224:	f8 01       	movw	r30, r16
    1226:	80 81       	ld	r24, Z
    1228:	88 23       	and	r24, r24
    122a:	51 f0       	breq	.+20     	; 0x1240 <lcd_write_text+0x42>
    122c:	c0 e0       	ldi	r28, 0x00	; 0
    122e:	0e 94 e1 04 	call	0x9c2	; 0x9c2 <send_data_8bit>
    1232:	cf 5f       	subi	r28, 0xFF	; 255
    1234:	f8 01       	movw	r30, r16
    1236:	ec 0f       	add	r30, r28
    1238:	f1 1d       	adc	r31, r1
    123a:	80 81       	ld	r24, Z
    123c:	81 11       	cpse	r24, r1
    123e:	f7 cf       	rjmp	.-18     	; 0x122e <lcd_write_text+0x30>
    1240:	cf 91       	pop	r28
    1242:	1f 91       	pop	r17
    1244:	0f 91       	pop	r16
    1246:	08 95       	ret

Disassembly of section .text.lcd_write_char:

000016a8 <lcd_write_char>:
    16a8:	cf 93       	push	r28
    16aa:	c8 2f       	mov	r28, r24
    16ac:	84 2f       	mov	r24, r20
    16ae:	90 e4       	ldi	r25, 0x40	; 64
    16b0:	69 9f       	mul	r22, r25
    16b2:	80 0d       	add	r24, r0
    16b4:	11 24       	eor	r1, r1
    16b6:	81 54       	subi	r24, 0x41	; 65
    16b8:	80 68       	ori	r24, 0x80	; 128
    16ba:	0e 94 85 04 	call	0x90a	; 0x90a <send_instruction_8bit>
    16be:	8f e8       	ldi	r24, 0x8F	; 143
    16c0:	91 e0       	ldi	r25, 0x01	; 1
    16c2:	01 97       	sbiw	r24, 0x01	; 1
    16c4:	f1 f7       	brne	.-4      	; 0x16c2 <lcd_write_char+0x1a>
    16c6:	00 c0       	rjmp	.+0      	; 0x16c8 <lcd_write_char+0x20>
    16c8:	00 00       	nop
    16ca:	8c 2f       	mov	r24, r28
    16cc:	cf 91       	pop	r28
    16ce:	0c 94 e1 04 	jmp	0x9c2	; 0x9c2 <send_data_8bit>

Disassembly of section .text.lcd_write_char_cp:

00001a58 <lcd_write_char_cp>:
    1a58:	0c 94 e1 04 	jmp	0x9c2	; 0x9c2 <send_data_8bit>

Disassembly of section .text.lcd_write_text_cp:

00001650 <lcd_write_text_cp>:
    1650:	0f 93       	push	r16
    1652:	1f 93       	push	r17
    1654:	cf 93       	push	r28
    1656:	fc 01       	movw	r30, r24
    1658:	80 81       	ld	r24, Z
    165a:	88 23       	and	r24, r24
    165c:	59 f0       	breq	.+22     	; 0x1674 <lcd_write_text_cp+0x24>
    165e:	8f 01       	movw	r16, r30
    1660:	c0 e0       	ldi	r28, 0x00	; 0
    1662:	0e 94 e1 04 	call	0x9c2	; 0x9c2 <send_data_8bit>
    1666:	cf 5f       	subi	r28, 0xFF	; 255
    1668:	f8 01       	movw	r30, r16
    166a:	ec 0f       	add	r30, r28
    166c:	f1 1d       	adc	r31, r1
    166e:	80 81       	ld	r24, Z
    1670:	81 11       	cpse	r24, r1
    1672:	f7 cf       	rjmp	.-18     	; 0x1662 <lcd_write_text_cp+0x12>
    1674:	cf 91       	pop	r28
    1676:	1f 91       	pop	r17
    1678:	0f 91       	pop	r16
    167a:	08 95       	ret

Disassembly of section .text.lcd_clear:

00001942 <lcd_clear>:
    1942:	81 e0       	ldi	r24, 0x01	; 1
    1944:	0e 94 85 04 	call	0x90a	; 0x90a <send_instruction_8bit>
    1948:	8f e3       	ldi	r24, 0x3F	; 63
    194a:	9f e1       	ldi	r25, 0x1F	; 31
    194c:	01 97       	sbiw	r24, 0x01	; 1
    194e:	f1 f7       	brne	.-4      	; 0x194c <lcd_clear+0xa>
    1950:	00 c0       	rjmp	.+0      	; 0x1952 <lcd_clear+0x10>
    1952:	00 00       	nop
    1954:	08 95       	ret

Disassembly of section .text.output_scan_pattern:

00001588 <output_scan_pattern>:
    1588:	cf 93       	push	r28
    158a:	c8 2f       	mov	r28, r24
    158c:	68 2f       	mov	r22, r24
    158e:	61 70       	andi	r22, 0x01	; 1
    1590:	84 e1       	ldi	r24, 0x14	; 20
    1592:	0e 94 b4 01 	call	0x368	; 0x368 <dio_channel_set>
    1596:	c1 fb       	bst	r28, 1
    1598:	66 27       	eor	r22, r22
    159a:	60 f9       	bld	r22, 0
    159c:	85 e1       	ldi	r24, 0x15	; 21
    159e:	0e 94 b4 01 	call	0x368	; 0x368 <dio_channel_set>
    15a2:	c2 fb       	bst	r28, 2
    15a4:	66 27       	eor	r22, r22
    15a6:	60 f9       	bld	r22, 0
    15a8:	86 e1       	ldi	r24, 0x16	; 22
    15aa:	0e 94 b4 01 	call	0x368	; 0x368 <dio_channel_set>
    15ae:	c3 fb       	bst	r28, 3
    15b0:	66 27       	eor	r22, r22
    15b2:	60 f9       	bld	r22, 0
    15b4:	87 e1       	ldi	r24, 0x17	; 23
    15b6:	cf 91       	pop	r28
    15b8:	0c 94 b4 01 	jmp	0x368	; 0x368 <dio_channel_set>

Disassembly of section .text.scan:

00000f50 <scan>:
 f50:	0f 93       	push	r16
 f52:	1f 93       	push	r17
 f54:	cf 93       	push	r28
 f56:	07 e8       	ldi	r16, 0x87	; 135
 f58:	11 e0       	ldi	r17, 0x01	; 1
 f5a:	8e e0       	ldi	r24, 0x0E	; 14
 f5c:	c0 e0       	ldi	r28, 0x00	; 0
 f5e:	0e 94 c4 0a 	call	0x1588	; 0x1588 <output_scan_pattern>
 f62:	80 e1       	ldi	r24, 0x10	; 16
 f64:	0e 94 6a 09 	call	0x12d4	; 0x12d4 <dio_channel_read>
 f68:	81 11       	cpse	r24, r1
 f6a:	06 c0       	rjmp	.+12     	; 0xf78 <scan+0x28>
 f6c:	80 e0       	ldi	r24, 0x00	; 0
 f6e:	8c 0f       	add	r24, r28
 f70:	cf 91       	pop	r28
 f72:	1f 91       	pop	r17
 f74:	0f 91       	pop	r16
 f76:	08 95       	ret
 f78:	81 e1       	ldi	r24, 0x11	; 17
 f7a:	0e 94 6a 09 	call	0x12d4	; 0x12d4 <dio_channel_read>
 f7e:	81 11       	cpse	r24, r1
 f80:	02 c0       	rjmp	.+4      	; 0xf86 <scan+0x36>
 f82:	84 e0       	ldi	r24, 0x04	; 4
 f84:	f4 cf       	rjmp	.-24     	; 0xf6e <scan+0x1e>
 f86:	82 e1       	ldi	r24, 0x12	; 18
 f88:	0e 94 6a 09 	call	0x12d4	; 0x12d4 <dio_channel_read>
 f8c:	81 11       	cpse	r24, r1
 f8e:	02 c0       	rjmp	.+4      	; 0xf94 <scan+0x44>
 f90:	88 e0       	ldi	r24, 0x08	; 8
 f92:	ed cf       	rjmp	.-38     	; 0xf6e <scan+0x1e>
 f94:	83 e1       	ldi	r24, 0x13	; 19
 f96:	0e 94 6a 09 	call	0x12d4	; 0x12d4 <dio_channel_read>
 f9a:	81 11       	cpse	r24, r1
 f9c:	02 c0       	rjmp	.+4      	; 0xfa2 <scan+0x52>
 f9e:	8c e0       	ldi	r24, 0x0C	; 12
 fa0:	e6 cf       	rjmp	.-52     	; 0xf6e <scan+0x1e>
 fa2:	cf 5f       	subi	r28, 0xFF	; 255
 fa4:	c4 30       	cpi	r28, 0x04	; 4
 fa6:	21 f0       	breq	.+8      	; 0xfb0 <scan+0x60>
 fa8:	f8 01       	movw	r30, r16
 faa:	81 91       	ld	r24, Z+
 fac:	8f 01       	movw	r16, r30
 fae:	d7 cf       	rjmp	.-82     	; 0xf5e <scan+0xe>
 fb0:	8f ef       	ldi	r24, 0xFF	; 255
 fb2:	cf 91       	pop	r28
 fb4:	1f 91       	pop	r17
 fb6:	0f 91       	pop	r16
 fb8:	08 95       	ret

Disassembly of section .text.init_keypad:

00001248 <init_keypad>:
    1248:	62 e0       	ldi	r22, 0x02	; 2
    124a:	80 e1       	ldi	r24, 0x10	; 16
    124c:	0e 94 77 00 	call	0xee	; 0xee <__data_load_end>
    1250:	62 e0       	ldi	r22, 0x02	; 2
    1252:	81 e1       	ldi	r24, 0x11	; 17
    1254:	0e 94 77 00 	call	0xee	; 0xee <__data_load_end>
    1258:	62 e0       	ldi	r22, 0x02	; 2
    125a:	82 e1       	ldi	r24, 0x12	; 18
    125c:	0e 94 77 00 	call	0xee	; 0xee <__data_load_end>
    1260:	62 e0       	ldi	r22, 0x02	; 2
    1262:	83 e1       	ldi	r24, 0x13	; 19
    1264:	0e 94 77 00 	call	0xee	; 0xee <__data_load_end>
    1268:	61 e0       	ldi	r22, 0x01	; 1
    126a:	84 e1       	ldi	r24, 0x14	; 20
    126c:	0e 94 77 00 	call	0xee	; 0xee <__data_load_end>
    1270:	61 e0       	ldi	r22, 0x01	; 1
    1272:	85 e1       	ldi	r24, 0x15	; 21
    1274:	0e 94 77 00 	call	0xee	; 0xee <__data_load_end>
    1278:	61 e0       	ldi	r22, 0x01	; 1
    127a:	86 e1       	ldi	r24, 0x16	; 22
    127c:	0e 94 77 00 	call	0xee	; 0xee <__data_load_end>
    1280:	61 e0       	ldi	r22, 0x01	; 1
    1282:	87 e1       	ldi	r24, 0x17	; 23
    1284:	0e 94 77 00 	call	0xee	; 0xee <__data_load_end>
    1288:	8f e0       	ldi	r24, 0x0F	; 15
    128a:	0c 94 c4 0a 	jmp	0x1588	; 0x1588 <output_scan_pattern>

Disassembly of section .text.get_key_clicked:

000016f8 <get_key_clicked>:
    16f8:	cf 93       	push	r28
    16fa:	0e 94 a8 07 	call	0xf50	; 0xf50 <scan>
    16fe:	8f 3f       	cpi	r24, 0xFF	; 255
    1700:	e1 f3       	breq	.-8      	; 0x16fa <get_key_clicked+0x2>
    1702:	e8 2f       	mov	r30, r24
    1704:	88 0f       	add	r24, r24
    1706:	ff 0b       	sbc	r31, r31
    1708:	e4 59       	subi	r30, 0x94	; 148
    170a:	fe 4f       	sbci	r31, 0xFE	; 254
    170c:	c0 81       	ld	r28, Z
    170e:	0e 94 a8 07 	call	0xf50	; 0xf50 <scan>
    1712:	8f 3f       	cpi	r24, 0xFF	; 255
    1714:	e1 f7       	brne	.-8      	; 0x170e <get_key_clicked+0x16>
    1716:	8c 2f       	mov	r24, r28
    1718:	cf 91       	pop	r28
    171a:	08 95       	ret

Disassembly of section .text.get_key_pressed:

0000187a <get_key_pressed>:
    187a:	0e 94 a8 07 	call	0xf50	; 0xf50 <scan>
    187e:	8f 3f       	cpi	r24, 0xFF	; 255
    1880:	39 f0       	breq	.+14     	; 0x1890 <get_key_pressed+0x16>
    1882:	e8 2f       	mov	r30, r24
    1884:	88 0f       	add	r24, r24
    1886:	ff 0b       	sbc	r31, r31
    1888:	e4 59       	subi	r30, 0x94	; 148
    188a:	fe 4f       	sbci	r31, 0xFE	; 254
    188c:	80 81       	ld	r24, Z
    188e:	08 95       	ret
    1890:	8b e2       	ldi	r24, 0x2B	; 43
    1892:	08 95       	ret

Disassembly of section .text.init_motors:

00001420 <init_motors>:
    1420:	61 e0       	ldi	r22, 0x01	; 1
    1422:	87 e1       	ldi	r24, 0x17	; 23
    1424:	0e 94 77 00 	call	0xee	; 0xee <__data_load_end>
    1428:	61 e0       	ldi	r22, 0x01	; 1
    142a:	86 e1       	ldi	r24, 0x16	; 22
    142c:	0e 94 77 00 	call	0xee	; 0xee <__data_load_end>
    1430:	61 e0       	ldi	r22, 0x01	; 1
    1432:	85 e1       	ldi	r24, 0x15	; 21
    1434:	0e 94 77 00 	call	0xee	; 0xee <__data_load_end>
    1438:	61 e0       	ldi	r22, 0x01	; 1
    143a:	84 e1       	ldi	r24, 0x14	; 20
    143c:	0e 94 77 00 	call	0xee	; 0xee <__data_load_end>
    1440:	60 e0       	ldi	r22, 0x00	; 0
    1442:	87 e1       	ldi	r24, 0x17	; 23
    1444:	0e 94 b4 01 	call	0x368	; 0x368 <dio_channel_set>
    1448:	60 e0       	ldi	r22, 0x00	; 0
    144a:	86 e1       	ldi	r24, 0x16	; 22
    144c:	0e 94 b4 01 	call	0x368	; 0x368 <dio_channel_set>
    1450:	60 e0       	ldi	r22, 0x00	; 0
    1452:	85 e1       	ldi	r24, 0x15	; 21
    1454:	0e 94 b4 01 	call	0x368	; 0x368 <dio_channel_set>
    1458:	60 e0       	ldi	r22, 0x00	; 0
    145a:	84 e1       	ldi	r24, 0x14	; 20
    145c:	0c 94 b4 01 	jmp	0x368	; 0x368 <dio_channel_set>

Disassembly of section .text.motors_forward:

00001782 <motors_forward>:
    1782:	60 e0       	ldi	r22, 0x00	; 0
    1784:	87 e1       	ldi	r24, 0x17	; 23
    1786:	0e 94 b4 01 	call	0x368	; 0x368 <dio_channel_set>
    178a:	61 e0       	ldi	r22, 0x01	; 1
    178c:	86 e1       	ldi	r24, 0x16	; 22
    178e:	0e 94 b4 01 	call	0x368	; 0x368 <dio_channel_set>
    1792:	60 e0       	ldi	r22, 0x00	; 0
    1794:	85 e1       	ldi	r24, 0x15	; 21
    1796:	0e 94 b4 01 	call	0x368	; 0x368 <dio_channel_set>
    179a:	61 e0       	ldi	r22, 0x01	; 1
    179c:	84 e1       	ldi	r24, 0x14	; 20
    179e:	0c 94 b4 01 	jmp	0x368	; 0x368 <dio_channel_set>

Disassembly of section .text.motors_backward:

000017a2 <motors_backward>:
    17a2:	61 e0       	ldi	r22, 0x01	; 1
    17a4:	87 e1       	ldi	r24, 0x17	; 23
    17a6:	0e 94 b4 01 	call	0x368	; 0x368 <dio_channel_set>
    17aa:	60 e0       	ldi	r22, 0x00	; 0
    17ac:	86 e1       	ldi	r24, 0x16	; 22
    17ae:	0e 94 b4 01 	call	0x368	; 0x368 <dio_channel_set>
    17b2:	61 e0       	ldi	r22, 0x01	; 1
    17b4:	85 e1       	ldi	r24, 0x15	; 21
    17b6:	0e 94 b4 01 	call	0x368	; 0x368 <dio_channel_set>
    17ba:	60 e0       	ldi	r22, 0x00	; 0
    17bc:	84 e1       	ldi	r24, 0x14	; 20
    17be:	0c 94 b4 01 	jmp	0x368	; 0x368 <dio_channel_set>

Disassembly of section .text.motors_rotate_cw:

000017c2 <motors_rotate_cw>:
    17c2:	61 e0       	ldi	r22, 0x01	; 1
    17c4:	87 e1       	ldi	r24, 0x17	; 23
    17c6:	0e 94 b4 01 	call	0x368	; 0x368 <dio_channel_set>
    17ca:	60 e0       	ldi	r22, 0x00	; 0
    17cc:	86 e1       	ldi	r24, 0x16	; 22
    17ce:	0e 94 b4 01 	call	0x368	; 0x368 <dio_channel_set>
    17d2:	60 e0       	ldi	r22, 0x00	; 0
    17d4:	85 e1       	ldi	r24, 0x15	; 21
    17d6:	0e 94 b4 01 	call	0x368	; 0x368 <dio_channel_set>
    17da:	61 e0       	ldi	r22, 0x01	; 1
    17dc:	84 e1       	ldi	r24, 0x14	; 20
    17de:	0c 94 b4 01 	jmp	0x368	; 0x368 <dio_channel_set>

Disassembly of section .text.motors_rotate_acw:

000017e2 <motors_rotate_acw>:
    17e2:	60 e0       	ldi	r22, 0x00	; 0
    17e4:	87 e1       	ldi	r24, 0x17	; 23
    17e6:	0e 94 b4 01 	call	0x368	; 0x368 <dio_channel_set>
    17ea:	61 e0       	ldi	r22, 0x01	; 1
    17ec:	86 e1       	ldi	r24, 0x16	; 22
    17ee:	0e 94 b4 01 	call	0x368	; 0x368 <dio_channel_set>
    17f2:	61 e0       	ldi	r22, 0x01	; 1
    17f4:	85 e1       	ldi	r24, 0x15	; 21
    17f6:	0e 94 b4 01 	call	0x368	; 0x368 <dio_channel_set>
    17fa:	60 e0       	ldi	r22, 0x00	; 0
    17fc:	84 e1       	ldi	r24, 0x14	; 20
    17fe:	0c 94 b4 01 	jmp	0x368	; 0x368 <dio_channel_set>

Disassembly of section .text.motors_hold:

00001802 <motors_hold>:
    1802:	60 e0       	ldi	r22, 0x00	; 0
    1804:	87 e1       	ldi	r24, 0x17	; 23
    1806:	0e 94 b4 01 	call	0x368	; 0x368 <dio_channel_set>
    180a:	60 e0       	ldi	r22, 0x00	; 0
    180c:	86 e1       	ldi	r24, 0x16	; 22
    180e:	0e 94 b4 01 	call	0x368	; 0x368 <dio_channel_set>
    1812:	60 e0       	ldi	r22, 0x00	; 0
    1814:	85 e1       	ldi	r24, 0x15	; 21
    1816:	0e 94 b4 01 	call	0x368	; 0x368 <dio_channel_set>
    181a:	60 e0       	ldi	r22, 0x00	; 0
    181c:	84 e1       	ldi	r24, 0x14	; 20
    181e:	0c 94 b4 01 	jmp	0x368	; 0x368 <dio_channel_set>

Disassembly of section .text.init_system:

0000149e <init_system>:
    149e:	0e 94 24 09 	call	0x1248	; 0x1248 <init_keypad>
    14a2:	0e 94 3d 05 	call	0xa7a	; 0xa7a <init_lcd>
    14a6:	41 e0       	ldi	r20, 0x01	; 1
    14a8:	61 e0       	ldi	r22, 0x01	; 1
    14aa:	80 e0       	ldi	r24, 0x00	; 0
    14ac:	91 e0       	ldi	r25, 0x01	; 1
    14ae:	0e 94 ff 08 	call	0x11fe	; 0x11fe <lcd_write_text>
    14b2:	2f ef       	ldi	r18, 0xFF	; 255
    14b4:	89 e6       	ldi	r24, 0x69	; 105
    14b6:	98 e1       	ldi	r25, 0x18	; 24
    14b8:	21 50       	subi	r18, 0x01	; 1
    14ba:	80 40       	sbci	r24, 0x00	; 0
    14bc:	90 40       	sbci	r25, 0x00	; 0
    14be:	e1 f7       	brne	.-8      	; 0x14b8 <init_system+0x1a>
    14c0:	00 c0       	rjmp	.+0      	; 0x14c2 <init_system+0x24>
    14c2:	00 00       	nop
    14c4:	0e 94 a1 0c 	call	0x1942	; 0x1942 <lcd_clear>
    14c8:	2f ef       	ldi	r18, 0xFF	; 255
    14ca:	89 e6       	ldi	r24, 0x69	; 105
    14cc:	98 e1       	ldi	r25, 0x18	; 24
    14ce:	21 50       	subi	r18, 0x01	; 1
    14d0:	80 40       	sbci	r24, 0x00	; 0
    14d2:	90 40       	sbci	r25, 0x00	; 0
    14d4:	e1 f7       	brne	.-8      	; 0x14ce <init_system+0x30>
    14d6:	00 c0       	rjmp	.+0      	; 0x14d8 <init_system+0x3a>
    14d8:	00 00       	nop
    14da:	08 95       	ret

Disassembly of section .text.is_this_new_safe:

00001956 <is_this_new_safe>:
    1956:	80 e0       	ldi	r24, 0x00	; 0
    1958:	90 e0       	ldi	r25, 0x00	; 0
    195a:	0e 94 db 0c 	call	0x19b6	; 0x19b6 <EEPROM_read>
    195e:	91 e0       	ldi	r25, 0x01	; 1
    1960:	80 3e       	cpi	r24, 0xE0	; 224
    1962:	09 f0       	breq	.+2      	; 0x1966 <is_this_new_safe+0x10>
    1964:	90 e0       	ldi	r25, 0x00	; 0
    1966:	89 2f       	mov	r24, r25
    1968:	08 95       	ret

Disassembly of section .text.enter_new_password_handeller:

00000494 <enter_new_password_handeller>:
 494:	af 92       	push	r10
 496:	bf 92       	push	r11
 498:	cf 92       	push	r12
 49a:	df 92       	push	r13
 49c:	ff 92       	push	r15
 49e:	0f 93       	push	r16
 4a0:	1f 93       	push	r17
 4a2:	cf 93       	push	r28
 4a4:	df 93       	push	r29
 4a6:	cd b7       	in	r28, 0x3d	; 61
 4a8:	de b7       	in	r29, 0x3e	; 62
 4aa:	2a 97       	sbiw	r28, 0x0a	; 10
 4ac:	0f b6       	in	r0, 0x3f	; 63
 4ae:	f8 94       	cli
 4b0:	de bf       	out	0x3e, r29	; 62
 4b2:	0f be       	out	0x3f, r0	; 63
 4b4:	cd bf       	out	0x3d, r28	; 61
 4b6:	41 e0       	ldi	r20, 0x01	; 1
 4b8:	61 e0       	ldi	r22, 0x01	; 1
 4ba:	89 e0       	ldi	r24, 0x09	; 9
 4bc:	91 e0       	ldi	r25, 0x01	; 1
 4be:	0e 94 ff 08 	call	0x11fe	; 0x11fe <lcd_write_text>
 4c2:	41 e0       	ldi	r20, 0x01	; 1
 4c4:	62 e0       	ldi	r22, 0x02	; 2
 4c6:	80 e2       	ldi	r24, 0x20	; 32
 4c8:	0e 94 54 0b 	call	0x16a8	; 0x16a8 <lcd_write_char>
 4cc:	f1 2c       	mov	r15, r1
 4ce:	0e 94 7c 0b 	call	0x16f8	; 0x16f8 <get_key_clicked>
 4d2:	84 34       	cpi	r24, 0x44	; 68
 4d4:	91 f0       	breq	.+36     	; 0x4fa <enter_new_password_handeller+0x66>
 4d6:	29 e0       	ldi	r18, 0x09	; 9
 4d8:	2f 15       	cp	r18, r15
 4da:	08 f0       	brcs	.+2      	; 0x4de <enter_new_password_handeller+0x4a>
 4dc:	43 c0       	rjmp	.+134    	; 0x564 <enter_new_password_handeller+0xd0>
 4de:	2a e0       	ldi	r18, 0x0A	; 10
 4e0:	f2 12       	cpse	r15, r18
 4e2:	f5 cf       	rjmp	.-22     	; 0x4ce <enter_new_password_handeller+0x3a>
 4e4:	41 e0       	ldi	r20, 0x01	; 1
 4e6:	62 e0       	ldi	r22, 0x02	; 2
 4e8:	87 e3       	ldi	r24, 0x37	; 55
 4ea:	91 e0       	ldi	r25, 0x01	; 1
 4ec:	0e 94 ff 08 	call	0x11fe	; 0x11fe <lcd_write_text>
 4f0:	41 e0       	ldi	r20, 0x01	; 1
 4f2:	62 e0       	ldi	r22, 0x02	; 2
 4f4:	87 e2       	ldi	r24, 0x27	; 39
 4f6:	91 e0       	ldi	r25, 0x01	; 1
 4f8:	e2 cf       	rjmp	.-60     	; 0x4be <enter_new_password_handeller+0x2a>
 4fa:	83 e0       	ldi	r24, 0x03	; 3
 4fc:	8f 15       	cp	r24, r15
 4fe:	f0 f5       	brcc	.+124    	; 0x57c <enter_new_password_handeller+0xe8>
 500:	ce 01       	movw	r24, r28
 502:	01 96       	adiw	r24, 0x01	; 1
 504:	6c 01       	movw	r12, r24
 506:	aa 24       	eor	r10, r10
 508:	aa 94       	dec	r10
 50a:	af 0c       	add	r10, r15
 50c:	b1 2c       	mov	r11, r1
 50e:	93 e0       	ldi	r25, 0x03	; 3
 510:	a9 0e       	add	r10, r25
 512:	b1 1c       	adc	r11, r1
 514:	02 e0       	ldi	r16, 0x02	; 2
 516:	10 e0       	ldi	r17, 0x00	; 0
 518:	f6 01       	movw	r30, r12
 51a:	61 91       	ld	r22, Z+
 51c:	6f 01       	movw	r12, r30
 51e:	c8 01       	movw	r24, r16
 520:	0e 94 be 0c 	call	0x197c	; 0x197c <EEPROM_write>
 524:	0f 5f       	subi	r16, 0xFF	; 255
 526:	1f 4f       	sbci	r17, 0xFF	; 255
 528:	0a 15       	cp	r16, r10
 52a:	1b 05       	cpc	r17, r11
 52c:	a9 f7       	brne	.-22     	; 0x518 <enter_new_password_handeller+0x84>
 52e:	60 ee       	ldi	r22, 0xE0	; 224
 530:	80 e0       	ldi	r24, 0x00	; 0
 532:	90 e0       	ldi	r25, 0x00	; 0
 534:	0e 94 be 0c 	call	0x197c	; 0x197c <EEPROM_write>
 538:	6f 2d       	mov	r22, r15
 53a:	81 e0       	ldi	r24, 0x01	; 1
 53c:	90 e0       	ldi	r25, 0x00	; 0
 53e:	0e 94 be 0c 	call	0x197c	; 0x197c <EEPROM_write>
 542:	2a 96       	adiw	r28, 0x0a	; 10
 544:	0f b6       	in	r0, 0x3f	; 63
 546:	f8 94       	cli
 548:	de bf       	out	0x3e, r29	; 62
 54a:	0f be       	out	0x3f, r0	; 63
 54c:	cd bf       	out	0x3d, r28	; 61
 54e:	df 91       	pop	r29
 550:	cf 91       	pop	r28
 552:	1f 91       	pop	r17
 554:	0f 91       	pop	r16
 556:	ff 90       	pop	r15
 558:	df 90       	pop	r13
 55a:	cf 90       	pop	r12
 55c:	bf 90       	pop	r11
 55e:	af 90       	pop	r10
 560:	0c 94 a1 0c 	jmp	0x1942	; 0x1942 <lcd_clear>
 564:	e1 e0       	ldi	r30, 0x01	; 1
 566:	f0 e0       	ldi	r31, 0x00	; 0
 568:	ec 0f       	add	r30, r28
 56a:	fd 1f       	adc	r31, r29
 56c:	ef 0d       	add	r30, r15
 56e:	f1 1d       	adc	r31, r1
 570:	80 83       	st	Z, r24
 572:	f3 94       	inc	r15
 574:	8a e2       	ldi	r24, 0x2A	; 42
 576:	0e 94 2c 0d 	call	0x1a58	; 0x1a58 <lcd_write_char_cp>
 57a:	a9 cf       	rjmp	.-174    	; 0x4ce <enter_new_password_handeller+0x3a>
 57c:	41 e0       	ldi	r20, 0x01	; 1
 57e:	62 e0       	ldi	r22, 0x02	; 2
 580:	88 e1       	ldi	r24, 0x18	; 24
 582:	91 e0       	ldi	r25, 0x01	; 1
 584:	0e 94 ff 08 	call	0x11fe	; 0x11fe <lcd_write_text>
 588:	9f ef       	ldi	r25, 0xFF	; 255
 58a:	e3 ed       	ldi	r30, 0xD3	; 211
 58c:	f0 e3       	ldi	r31, 0x30	; 48
 58e:	91 50       	subi	r25, 0x01	; 1
 590:	e0 40       	sbci	r30, 0x00	; 0
 592:	f0 40       	sbci	r31, 0x00	; 0
 594:	e1 f7       	brne	.-8      	; 0x58e <enter_new_password_handeller+0xfa>
 596:	00 c0       	rjmp	.+0      	; 0x598 <enter_new_password_handeller+0x104>
 598:	00 00       	nop
 59a:	aa cf       	rjmp	.-172    	; 0x4f0 <enter_new_password_handeller+0x5c>

Disassembly of section .text.load_save_configuration:

0000114a <load_save_configuration>:
    114a:	df 92       	push	r13
    114c:	ef 92       	push	r14
    114e:	ff 92       	push	r15
    1150:	0f 93       	push	r16
    1152:	1f 93       	push	r17
    1154:	cf 93       	push	r28
    1156:	df 93       	push	r29
    1158:	d8 2f       	mov	r29, r24
    115a:	c9 2f       	mov	r28, r25
    115c:	81 e0       	ldi	r24, 0x01	; 1
    115e:	90 e0       	ldi	r25, 0x00	; 0
    1160:	0e 94 db 0c 	call	0x19b6	; 0x19b6 <EEPROM_read>
    1164:	d8 2e       	mov	r13, r24
    1166:	88 23       	and	r24, r24
    1168:	a9 f0       	breq	.+42     	; 0x1194 <load_save_configuration+0x4a>
    116a:	0d 2f       	mov	r16, r29
    116c:	1c 2f       	mov	r17, r28
    116e:	ee 24       	eor	r14, r14
    1170:	ea 94       	dec	r14
    1172:	e8 0e       	add	r14, r24
    1174:	f1 2c       	mov	r15, r1
    1176:	83 e0       	ldi	r24, 0x03	; 3
    1178:	e8 0e       	add	r14, r24
    117a:	f1 1c       	adc	r15, r1
    117c:	c2 e0       	ldi	r28, 0x02	; 2
    117e:	d0 e0       	ldi	r29, 0x00	; 0
    1180:	ce 01       	movw	r24, r28
    1182:	0e 94 db 0c 	call	0x19b6	; 0x19b6 <EEPROM_read>
    1186:	f8 01       	movw	r30, r16
    1188:	81 93       	st	Z+, r24
    118a:	8f 01       	movw	r16, r30
    118c:	21 96       	adiw	r28, 0x01	; 1
    118e:	ce 15       	cp	r28, r14
    1190:	df 05       	cpc	r29, r15
    1192:	b1 f7       	brne	.-20     	; 0x1180 <load_save_configuration+0x36>
    1194:	8d 2d       	mov	r24, r13
    1196:	df 91       	pop	r29
    1198:	cf 91       	pop	r28
    119a:	1f 91       	pop	r17
    119c:	0f 91       	pop	r16
    119e:	ff 90       	pop	r15
    11a0:	ef 90       	pop	r14
    11a2:	df 90       	pop	r13
    11a4:	08 95       	ret

Disassembly of section .text.scan_save_password:

0000068c <scan_save_password>:
 68c:	0f 93       	push	r16
 68e:	1f 93       	push	r17
 690:	cf 93       	push	r28
 692:	df 93       	push	r29
 694:	8c 01       	movw	r16, r24
 696:	eb 01       	movw	r28, r22
 698:	18 82       	st	Y, r1
 69a:	41 e0       	ldi	r20, 0x01	; 1
 69c:	61 e0       	ldi	r22, 0x01	; 1
 69e:	85 e4       	ldi	r24, 0x45	; 69
 6a0:	91 e0       	ldi	r25, 0x01	; 1
 6a2:	0e 94 ff 08 	call	0x11fe	; 0x11fe <lcd_write_text>
 6a6:	41 e0       	ldi	r20, 0x01	; 1
 6a8:	62 e0       	ldi	r22, 0x02	; 2
 6aa:	80 e2       	ldi	r24, 0x20	; 32
 6ac:	0e 94 54 0b 	call	0x16a8	; 0x16a8 <lcd_write_char>
 6b0:	0e 94 7c 0b 	call	0x16f8	; 0x16f8 <get_key_clicked>
 6b4:	84 34       	cpi	r24, 0x44	; 68
 6b6:	29 f1       	breq	.+74     	; 0x702 <scan_save_password+0x76>
 6b8:	98 81       	ld	r25, Y
 6ba:	9a 30       	cpi	r25, 0x0A	; 10
 6bc:	08 f4       	brcc	.+2      	; 0x6c0 <scan_save_password+0x34>
 6be:	40 c0       	rjmp	.+128    	; 0x740 <scan_save_password+0xb4>
 6c0:	9a 30       	cpi	r25, 0x0A	; 10
 6c2:	b1 f7       	brne	.-20     	; 0x6b0 <scan_save_password+0x24>
 6c4:	41 e0       	ldi	r20, 0x01	; 1
 6c6:	62 e0       	ldi	r22, 0x02	; 2
 6c8:	87 e3       	ldi	r24, 0x37	; 55
 6ca:	91 e0       	ldi	r25, 0x01	; 1
 6cc:	0e 94 ff 08 	call	0x11fe	; 0x11fe <lcd_write_text>
 6d0:	41 e0       	ldi	r20, 0x01	; 1
 6d2:	62 e0       	ldi	r22, 0x02	; 2
 6d4:	87 e2       	ldi	r24, 0x27	; 39
 6d6:	91 e0       	ldi	r25, 0x01	; 1
 6d8:	0e 94 ff 08 	call	0x11fe	; 0x11fe <lcd_write_text>
 6dc:	41 e0       	ldi	r20, 0x01	; 1
 6de:	62 e0       	ldi	r22, 0x02	; 2
 6e0:	80 e2       	ldi	r24, 0x20	; 32
 6e2:	0e 94 54 0b 	call	0x16a8	; 0x16a8 <lcd_write_char>
 6e6:	2f ef       	ldi	r18, 0xFF	; 255
 6e8:	83 ed       	ldi	r24, 0xD3	; 211
 6ea:	90 e3       	ldi	r25, 0x30	; 48
 6ec:	21 50       	subi	r18, 0x01	; 1
 6ee:	80 40       	sbci	r24, 0x00	; 0
 6f0:	90 40       	sbci	r25, 0x00	; 0
 6f2:	e1 f7       	brne	.-8      	; 0x6ec <scan_save_password+0x60>
 6f4:	00 c0       	rjmp	.+0      	; 0x6f6 <scan_save_password+0x6a>
 6f6:	00 00       	nop
 6f8:	18 82       	st	Y, r1
 6fa:	0e 94 7c 0b 	call	0x16f8	; 0x16f8 <get_key_clicked>
 6fe:	84 34       	cpi	r24, 0x44	; 68
 700:	d9 f6       	brne	.-74     	; 0x6b8 <scan_save_password+0x2c>
 702:	88 81       	ld	r24, Y
 704:	84 30       	cpi	r24, 0x04	; 4
 706:	38 f5       	brcc	.+78     	; 0x756 <scan_save_password+0xca>
 708:	41 e0       	ldi	r20, 0x01	; 1
 70a:	62 e0       	ldi	r22, 0x02	; 2
 70c:	88 e1       	ldi	r24, 0x18	; 24
 70e:	91 e0       	ldi	r25, 0x01	; 1
 710:	0e 94 ff 08 	call	0x11fe	; 0x11fe <lcd_write_text>
 714:	2f ef       	ldi	r18, 0xFF	; 255
 716:	83 ed       	ldi	r24, 0xD3	; 211
 718:	90 e3       	ldi	r25, 0x30	; 48
 71a:	21 50       	subi	r18, 0x01	; 1
 71c:	80 40       	sbci	r24, 0x00	; 0
 71e:	90 40       	sbci	r25, 0x00	; 0
 720:	e1 f7       	brne	.-8      	; 0x71a <scan_save_password+0x8e>
 722:	00 c0       	rjmp	.+0      	; 0x724 <scan_save_password+0x98>
 724:	00 00       	nop
 726:	41 e0       	ldi	r20, 0x01	; 1
 728:	62 e0       	ldi	r22, 0x02	; 2
 72a:	87 e2       	ldi	r24, 0x27	; 39
 72c:	91 e0       	ldi	r25, 0x01	; 1
 72e:	0e 94 ff 08 	call	0x11fe	; 0x11fe <lcd_write_text>
 732:	41 e0       	ldi	r20, 0x01	; 1
 734:	62 e0       	ldi	r22, 0x02	; 2
 736:	80 e2       	ldi	r24, 0x20	; 32
 738:	0e 94 54 0b 	call	0x16a8	; 0x16a8 <lcd_write_char>
 73c:	18 82       	st	Y, r1
 73e:	dd cf       	rjmp	.-70     	; 0x6fa <scan_save_password+0x6e>
 740:	f8 01       	movw	r30, r16
 742:	e9 0f       	add	r30, r25
 744:	f1 1d       	adc	r31, r1
 746:	80 83       	st	Z, r24
 748:	88 81       	ld	r24, Y
 74a:	8f 5f       	subi	r24, 0xFF	; 255
 74c:	88 83       	st	Y, r24
 74e:	8a e2       	ldi	r24, 0x2A	; 42
 750:	0e 94 2c 0d 	call	0x1a58	; 0x1a58 <lcd_write_char_cp>
 754:	ad cf       	rjmp	.-166    	; 0x6b0 <scan_save_password+0x24>
 756:	0e 94 a1 0c 	call	0x1942	; 0x1942 <lcd_clear>
 75a:	0e 94 a1 0c 	call	0x1942	; 0x1942 <lcd_clear>
 75e:	81 e0       	ldi	r24, 0x01	; 1
 760:	df 91       	pop	r29
 762:	cf 91       	pop	r28
 764:	1f 91       	pop	r17
 766:	0f 91       	pop	r16
 768:	08 95       	ret

Disassembly of section .text.key_safe_app:

0000083c <key_safe_app>:
 83c:	cf 93       	push	r28
 83e:	df 93       	push	r29
 840:	cd b7       	in	r28, 0x3d	; 61
 842:	de b7       	in	r29, 0x3e	; 62
 844:	65 97       	sbiw	r28, 0x15	; 21
 846:	0f b6       	in	r0, 0x3f	; 63
 848:	f8 94       	cli
 84a:	de bf       	out	0x3e, r29	; 62
 84c:	0f be       	out	0x3f, r0	; 63
 84e:	cd bf       	out	0x3d, r28	; 61
 850:	1d 8a       	std	Y+21, r1	; 0x15
 852:	2f ef       	ldi	r18, 0xFF	; 255
 854:	85 ea       	ldi	r24, 0xA5	; 165
 856:	9e e0       	ldi	r25, 0x0E	; 14
 858:	21 50       	subi	r18, 0x01	; 1
 85a:	80 40       	sbci	r24, 0x00	; 0
 85c:	90 40       	sbci	r25, 0x00	; 0
 85e:	e1 f7       	brne	.-8      	; 0x858 <key_safe_app+0x1c>
 860:	00 c0       	rjmp	.+0      	; 0x862 <key_safe_app+0x26>
 862:	00 00       	nop
 864:	0e 94 4f 0a 	call	0x149e	; 0x149e <init_system>
 868:	80 e0       	ldi	r24, 0x00	; 0
 86a:	90 e0       	ldi	r25, 0x00	; 0
 86c:	0e 94 db 0c 	call	0x19b6	; 0x19b6 <EEPROM_read>
 870:	80 3e       	cpi	r24, 0xE0	; 224
 872:	11 f4       	brne	.+4      	; 0x878 <key_safe_app+0x3c>
 874:	0e 94 4a 02 	call	0x494	; 0x494 <enter_new_password_handeller>
 878:	ce 01       	movw	r24, r28
 87a:	0b 96       	adiw	r24, 0x0b	; 11
 87c:	0e 94 a5 08 	call	0x114a	; 0x114a <load_save_configuration>
 880:	f8 2e       	mov	r15, r24
 882:	0f ef       	ldi	r16, 0xFF	; 255
 884:	08 0f       	add	r16, r24
 886:	10 e0       	ldi	r17, 0x00	; 0
 888:	0f 5f       	subi	r16, 0xFF	; 255
 88a:	1f 4f       	sbci	r17, 0xFF	; 255
 88c:	81 e0       	ldi	r24, 0x01	; 1
 88e:	90 e0       	ldi	r25, 0x00	; 0
 890:	8c 0f       	add	r24, r28
 892:	9d 1f       	adc	r25, r29
 894:	08 0f       	add	r16, r24
 896:	19 1f       	adc	r17, r25
 898:	be 01       	movw	r22, r28
 89a:	6b 5e       	subi	r22, 0xEB	; 235
 89c:	7f 4f       	sbci	r23, 0xFF	; 255
 89e:	ce 01       	movw	r24, r28
 8a0:	01 96       	adiw	r24, 0x01	; 1
 8a2:	0e 94 46 03 	call	0x68c	; 0x68c <scan_save_password>
 8a6:	88 23       	and	r24, r24
 8a8:	b9 f3       	breq	.-18     	; 0x898 <key_safe_app+0x5c>
 8aa:	8d 89       	ldd	r24, Y+21	; 0x15
 8ac:	f8 16       	cp	r15, r24
 8ae:	a1 f0       	breq	.+40     	; 0x8d8 <key_safe_app+0x9c>
 8b0:	0e 94 a1 0c 	call	0x1942	; 0x1942 <lcd_clear>
 8b4:	41 e0       	ldi	r20, 0x01	; 1
 8b6:	62 e0       	ldi	r22, 0x02	; 2
 8b8:	86 e6       	ldi	r24, 0x66	; 102
 8ba:	91 e0       	ldi	r25, 0x01	; 1
 8bc:	0e 94 ff 08 	call	0x11fe	; 0x11fe <lcd_write_text>
 8c0:	9f ef       	ldi	r25, 0xFF	; 255
 8c2:	23 ed       	ldi	r18, 0xD3	; 211
 8c4:	80 e3       	ldi	r24, 0x30	; 48
 8c6:	91 50       	subi	r25, 0x01	; 1
 8c8:	20 40       	sbci	r18, 0x00	; 0
 8ca:	80 40       	sbci	r24, 0x00	; 0
 8cc:	e1 f7       	brne	.-8      	; 0x8c6 <key_safe_app+0x8a>
 8ce:	00 c0       	rjmp	.+0      	; 0x8d0 <key_safe_app+0x94>
 8d0:	00 00       	nop
 8d2:	0e 94 a1 0c 	call	0x1942	; 0x1942 <lcd_clear>
 8d6:	e0 cf       	rjmp	.-64     	; 0x898 <key_safe_app+0x5c>
 8d8:	ff 20       	and	r15, r15
 8da:	81 f0       	breq	.+32     	; 0x8fc <key_safe_app+0xc0>
 8dc:	9b 85       	ldd	r25, Y+11	; 0x0b
 8de:	89 81       	ldd	r24, Y+1	; 0x01
 8e0:	98 13       	cpse	r25, r24
 8e2:	e6 cf       	rjmp	.-52     	; 0x8b0 <key_safe_app+0x74>
 8e4:	fe 01       	movw	r30, r28
 8e6:	32 96       	adiw	r30, 0x02	; 2
 8e8:	de 01       	movw	r26, r28
 8ea:	1c 96       	adiw	r26, 0x0c	; 12
 8ec:	04 c0       	rjmp	.+8      	; 0x8f6 <key_safe_app+0xba>
 8ee:	91 91       	ld	r25, Z+
 8f0:	8d 91       	ld	r24, X+
 8f2:	98 13       	cpse	r25, r24
 8f4:	dd cf       	rjmp	.-70     	; 0x8b0 <key_safe_app+0x74>
 8f6:	e0 17       	cp	r30, r16
 8f8:	f1 07       	cpc	r31, r17
 8fa:	c9 f7       	brne	.-14     	; 0x8ee <key_safe_app+0xb2>
 8fc:	0e 94 a1 0c 	call	0x1942	; 0x1942 <lcd_clear>
 900:	41 e0       	ldi	r20, 0x01	; 1
 902:	62 e0       	ldi	r22, 0x02	; 2
 904:	85 e5       	ldi	r24, 0x55	; 85
 906:	91 e0       	ldi	r25, 0x01	; 1
 908:	d9 cf       	rjmp	.-78     	; 0x8bc <key_safe_app+0x80>

Disassembly of section .text.is_passwords_equal:

000014dc <is_passwords_equal>:
    14dc:	44 23       	and	r20, r20
    14de:	c1 f0       	breq	.+48     	; 0x1510 <is_passwords_equal+0x34>
    14e0:	fc 01       	movw	r30, r24
    14e2:	30 81       	ld	r19, Z
    14e4:	fb 01       	movw	r30, r22
    14e6:	20 81       	ld	r18, Z
    14e8:	32 13       	cpse	r19, r18
    14ea:	14 c0       	rjmp	.+40     	; 0x1514 <is_passwords_equal+0x38>
    14ec:	fc 01       	movw	r30, r24
    14ee:	31 96       	adiw	r30, 0x01	; 1
    14f0:	db 01       	movw	r26, r22
    14f2:	11 96       	adiw	r26, 0x01	; 1
    14f4:	41 50       	subi	r20, 0x01	; 1
    14f6:	50 e0       	ldi	r21, 0x00	; 0
    14f8:	4f 5f       	subi	r20, 0xFF	; 255
    14fa:	5f 4f       	sbci	r21, 0xFF	; 255
    14fc:	48 0f       	add	r20, r24
    14fe:	59 1f       	adc	r21, r25
    1500:	04 c0       	rjmp	.+8      	; 0x150a <is_passwords_equal+0x2e>
    1502:	21 91       	ld	r18, Z+
    1504:	9d 91       	ld	r25, X+
    1506:	29 13       	cpse	r18, r25
    1508:	05 c0       	rjmp	.+10     	; 0x1514 <is_passwords_equal+0x38>
    150a:	e4 17       	cp	r30, r20
    150c:	f5 07       	cpc	r31, r21
    150e:	c9 f7       	brne	.-14     	; 0x1502 <is_passwords_equal+0x26>
    1510:	81 e0       	ldi	r24, 0x01	; 1
    1512:	08 95       	ret
    1514:	80 e0       	ldi	r24, 0x00	; 0
    1516:	08 95       	ret

Disassembly of section .text.dac_output:

0000167c <dac_output>:
    167c:	cf 93       	push	r28
    167e:	df 93       	push	r29
    1680:	d8 2f       	mov	r29, r24
    1682:	c9 2f       	mov	r28, r25
    1684:	60 e0       	ldi	r22, 0x00	; 0
    1686:	80 e0       	ldi	r24, 0x00	; 0
    1688:	0e 94 b4 01 	call	0x368	; 0x368 <dio_channel_set>
    168c:	8c 2f       	mov	r24, r28
    168e:	8f 70       	andi	r24, 0x0F	; 15
    1690:	80 63       	ori	r24, 0x30	; 48
    1692:	0e 94 03 0d 	call	0x1a06	; 0x1a06 <spi_write>
    1696:	8d 2f       	mov	r24, r29
    1698:	0e 94 03 0d 	call	0x1a06	; 0x1a06 <spi_write>
    169c:	61 e0       	ldi	r22, 0x01	; 1
    169e:	80 e0       	ldi	r24, 0x00	; 0
    16a0:	df 91       	pop	r29
    16a2:	cf 91       	pop	r28
    16a4:	0c 94 b4 01 	jmp	0x368	; 0x368 <dio_channel_set>

Disassembly of section .text.external_dac:

000015bc <external_dac>:
    15bc:	2f ef       	ldi	r18, 0xFF	; 255
    15be:	81 ee       	ldi	r24, 0xE1	; 225
    15c0:	94 e0       	ldi	r25, 0x04	; 4
    15c2:	21 50       	subi	r18, 0x01	; 1
    15c4:	80 40       	sbci	r24, 0x00	; 0
    15c6:	90 40       	sbci	r25, 0x00	; 0
    15c8:	e1 f7       	brne	.-8      	; 0x15c2 <external_dac+0x6>
    15ca:	00 c0       	rjmp	.+0      	; 0x15cc <external_dac+0x10>
    15cc:	00 00       	nop
    15ce:	61 e0       	ldi	r22, 0x01	; 1
    15d0:	80 e0       	ldi	r24, 0x00	; 0
    15d2:	0e 94 77 00 	call	0xee	; 0xee <__data_load_end>
    15d6:	61 e0       	ldi	r22, 0x01	; 1
    15d8:	80 e0       	ldi	r24, 0x00	; 0
    15da:	0e 94 b4 01 	call	0x368	; 0x368 <dio_channel_set>
    15de:	40 e0       	ldi	r20, 0x00	; 0
    15e0:	60 e0       	ldi	r22, 0x00	; 0
    15e2:	83 e0       	ldi	r24, 0x03	; 3
    15e4:	0e 94 95 05 	call	0xb2a	; 0xb2a <init_spi>
    15e8:	80 e0       	ldi	r24, 0x00	; 0
    15ea:	94 e0       	ldi	r25, 0x04	; 4
    15ec:	0c 94 3e 0b 	jmp	0x167c	; 0x167c <dac_output>

Disassembly of section .text.fire_app:

00000fba <fire_app>:
     fba:	cf 93       	push	r28
     fbc:	df 93       	push	r29
     fbe:	cd b7       	in	r28, 0x3d	; 61
     fc0:	de b7       	in	r29, 0x3e	; 62
     fc2:	2a 97       	sbiw	r28, 0x0a	; 10
     fc4:	0f b6       	in	r0, 0x3f	; 63
     fc6:	f8 94       	cli
     fc8:	de bf       	out	0x3e, r29	; 62
     fca:	0f be       	out	0x3f, r0	; 63
     fcc:	cd bf       	out	0x3d, r28	; 61
     fce:	61 e0       	ldi	r22, 0x01	; 1
     fd0:	81 e1       	ldi	r24, 0x11	; 17
     fd2:	0e 94 77 00 	call	0xee	; 0xee <__data_load_end>
     fd6:	60 e0       	ldi	r22, 0x00	; 0
     fd8:	80 e1       	ldi	r24, 0x10	; 16
     fda:	0e 94 77 00 	call	0xee	; 0xee <__data_load_end>
     fde:	0e 94 aa 0a 	call	0x1554	; 0x1554 <init_adc>
     fe2:	80 e8       	ldi	r24, 0x80	; 128
     fe4:	95 e2       	ldi	r25, 0x25	; 37
     fe6:	0e 94 31 06 	call	0xc62	; 0xc62 <init_usart>
     fea:	80 e0       	ldi	r24, 0x00	; 0
     fec:	0e 94 12 0b 	call	0x1624	; 0x1624 <adc_channel_read>
     ff0:	4a e0       	ldi	r20, 0x0A	; 10
     ff2:	50 e0       	ldi	r21, 0x00	; 0
     ff4:	be 01       	movw	r22, r28
     ff6:	6f 5f       	subi	r22, 0xFF	; 255
     ff8:	7f 4f       	sbci	r23, 0xFF	; 255
     ffa:	0e 94 62 0c 	call	0x18c4	; 0x18c4 <itoa>
     ffe:	ce 01       	movw	r24, r28
    1000:	01 96       	adiw	r24, 0x01	; 1
    1002:	0e 94 69 0b 	call	0x16d2	; 0x16d2 <usart_write_text>
    1006:	8b e8       	ldi	r24, 0x8B	; 139
    1008:	91 e0       	ldi	r25, 0x01	; 1
    100a:	0e 94 69 0b 	call	0x16d2	; 0x16d2 <usart_write_text>
    100e:	2f ef       	ldi	r18, 0xFF	; 255
    1010:	83 ed       	ldi	r24, 0xD3	; 211
    1012:	90 e3       	ldi	r25, 0x30	; 48
    1014:	21 50       	subi	r18, 0x01	; 1
    1016:	80 40       	sbci	r24, 0x00	; 0
    1018:	90 40       	sbci	r25, 0x00	; 0
    101a:	e1 f7       	brne	.-8      	; 0x1014 <fire_app+0x5a>
    101c:	00 c0       	rjmp	.+0      	; 0x101e <fire_app+0x64>
    101e:	00 00       	nop
    1020:	e4 cf       	rjmp	.-56     	; 0xfea <fire_app+0x30>

Disassembly of section .text.test_iic:

00001022 <test_iic>:
    1022:	61 e0       	ldi	r22, 0x01	; 1
    1024:	8c e0       	ldi	r24, 0x0C	; 12
    1026:	0e 94 77 00 	call	0xee	; 0xee <__data_load_end>
    102a:	61 e0       	ldi	r22, 0x01	; 1
    102c:	8d e0       	ldi	r24, 0x0D	; 13
    102e:	0e 94 77 00 	call	0xee	; 0xee <__data_load_end>
    1032:	80 ea       	ldi	r24, 0xA0	; 160
    1034:	96 e8       	ldi	r25, 0x86	; 134
    1036:	0e 94 2f 0c 	call	0x185e	; 0x185e <init_i2c>
    103a:	2f ef       	ldi	r18, 0xFF	; 255
    103c:	85 ea       	ldi	r24, 0xA5	; 165
    103e:	9e e0       	ldi	r25, 0x0E	; 14
    1040:	21 50       	subi	r18, 0x01	; 1
    1042:	80 40       	sbci	r24, 0x00	; 0
    1044:	90 40       	sbci	r25, 0x00	; 0
    1046:	e1 f7       	brne	.-8      	; 0x1040 <test_iic+0x1e>
    1048:	00 c0       	rjmp	.+0      	; 0x104a <test_iic+0x28>
    104a:	00 00       	nop
    104c:	82 ea       	ldi	r24, 0xA2	; 162
    104e:	0e 94 d0 09 	call	0x13a0	; 0x13a0 <i2c_start>
    1052:	82 e0       	ldi	r24, 0x02	; 2
    1054:	0e 94 8e 0b 	call	0x171c	; 0x171c <i2c_write>
    1058:	8a ea       	ldi	r24, 0xAA	; 170
    105a:	0e 94 8e 0b 	call	0x171c	; 0x171c <i2c_write>
    105e:	0e 94 1f 0d 	call	0x1a3e	; 0x1a3e <i2c_stop>
    1062:	2f ef       	ldi	r18, 0xFF	; 255
    1064:	81 ee       	ldi	r24, 0xE1	; 225
    1066:	94 e0       	ldi	r25, 0x04	; 4
    1068:	21 50       	subi	r18, 0x01	; 1
    106a:	80 40       	sbci	r24, 0x00	; 0
    106c:	90 40       	sbci	r25, 0x00	; 0
    106e:	e1 f7       	brne	.-8      	; 0x1068 <test_iic+0x46>
    1070:	00 c0       	rjmp	.+0      	; 0x1072 <test_iic+0x50>
    1072:	00 00       	nop
    1074:	80 ea       	ldi	r24, 0xA0	; 160
    1076:	0e 94 d0 09 	call	0x13a0	; 0x13a0 <i2c_start>
    107a:	82 e0       	ldi	r24, 0x02	; 2
    107c:	0e 94 8e 0b 	call	0x171c	; 0x171c <i2c_write>
    1080:	8a ea       	ldi	r24, 0xAA	; 170
    1082:	0e 94 8e 0b 	call	0x171c	; 0x171c <i2c_write>
    1086:	0c 94 1f 0d 	jmp	0x1a3e	; 0x1a3e <i2c_stop>

Disassembly of section .text.test_pwm:

00001518 <test_pwm>:
    1518:	cf 93       	push	r28
    151a:	df 93       	push	r29
    151c:	41 e0       	ldi	r20, 0x01	; 1
    151e:	62 e0       	ldi	r22, 0x02	; 2
    1520:	82 e3       	ldi	r24, 0x32	; 50
    1522:	90 e0       	ldi	r25, 0x00	; 0
    1524:	0e 94 1d 01 	call	0x23a	; 0x23a <init_pwm>
    1528:	c2 e1       	ldi	r28, 0x12	; 18
    152a:	d0 e0       	ldi	r29, 0x00	; 0
    152c:	be 01       	movw	r22, r28
    152e:	80 e0       	ldi	r24, 0x00	; 0
    1530:	0e 94 e7 05 	call	0xbce	; 0xbce <pwm_change_duty>
    1534:	2f ef       	ldi	r18, 0xFF	; 255
    1536:	83 ed       	ldi	r24, 0xD3	; 211
    1538:	90 e3       	ldi	r25, 0x30	; 48
    153a:	21 50       	subi	r18, 0x01	; 1
    153c:	80 40       	sbci	r24, 0x00	; 0
    153e:	90 40       	sbci	r25, 0x00	; 0
    1540:	e1 f7       	brne	.-8      	; 0x153a <test_pwm+0x22>
    1542:	00 c0       	rjmp	.+0      	; 0x1544 <test_pwm+0x2c>
    1544:	00 00       	nop
    1546:	21 96       	adiw	r28, 0x01	; 1
    1548:	cf 33       	cpi	r28, 0x3F	; 63
    154a:	d1 05       	cpc	r29, r1
    154c:	79 f7       	brne	.-34     	; 0x152c <test_pwm+0x14>
    154e:	df 91       	pop	r29
    1550:	cf 91       	pop	r28
    1552:	08 95       	ret

Disassembly of section .text.robot_app:

00000df4 <robot_app>:
 df4:	62 e0       	ldi	r22, 0x02	; 2
 df6:	83 e1       	ldi	r24, 0x13	; 19
 df8:	0e 94 77 00 	call	0xee	; 0xee <__data_load_end>
 dfc:	61 e0       	ldi	r22, 0x01	; 1
 dfe:	81 e1       	ldi	r24, 0x11	; 17
 e00:	0e 94 77 00 	call	0xee	; 0xee <__data_load_end>
 e04:	60 e0       	ldi	r22, 0x00	; 0
 e06:	80 e1       	ldi	r24, 0x10	; 16
 e08:	0e 94 77 00 	call	0xee	; 0xee <__data_load_end>
 e0c:	80 e8       	ldi	r24, 0x80	; 128
 e0e:	95 e2       	ldi	r25, 0x25	; 37
 e10:	0e 94 31 06 	call	0xc62	; 0xc62 <init_usart>
 e14:	2f ef       	ldi	r18, 0xFF	; 255
 e16:	83 e2       	ldi	r24, 0x23	; 35
 e18:	94 ef       	ldi	r25, 0xF4	; 244
 e1a:	21 50       	subi	r18, 0x01	; 1
 e1c:	80 40       	sbci	r24, 0x00	; 0
 e1e:	90 40       	sbci	r25, 0x00	; 0
 e20:	e1 f7       	brne	.-8      	; 0xe1a <robot_app+0x26>
 e22:	00 c0       	rjmp	.+0      	; 0xe24 <robot_app+0x30>
 e24:	00 00       	nop
 e26:	0e 94 10 0a 	call	0x1420	; 0x1420 <init_motors>
 e2a:	0e 94 f7 0c 	call	0x19ee	; 0x19ee <usart_data_available>
 e2e:	88 23       	and	r24, r24
 e30:	e1 f3       	breq	.-8      	; 0xe2a <robot_app+0x36>
 e32:	0e 94 cd 0c 	call	0x199a	; 0x199a <usart_read_char>
 e36:	8c 34       	cpi	r24, 0x4C	; 76
 e38:	79 f0       	breq	.+30     	; 0xe58 <robot_app+0x64>
 e3a:	38 f4       	brcc	.+14     	; 0xe4a <robot_app+0x56>
 e3c:	82 34       	cpi	r24, 0x42	; 66
 e3e:	79 f0       	breq	.+30     	; 0xe5e <robot_app+0x6a>
 e40:	86 34       	cpi	r24, 0x46	; 70
 e42:	99 f7       	brne	.-26     	; 0xe2a <robot_app+0x36>
 e44:	0e 94 c1 0b 	call	0x1782	; 0x1782 <motors_forward>
 e48:	f0 cf       	rjmp	.-32     	; 0xe2a <robot_app+0x36>
 e4a:	82 35       	cpi	r24, 0x52	; 82
 e4c:	59 f0       	breq	.+22     	; 0xe64 <robot_app+0x70>
 e4e:	83 35       	cpi	r24, 0x53	; 83
 e50:	61 f7       	brne	.-40     	; 0xe2a <robot_app+0x36>
 e52:	0e 94 01 0c 	call	0x1802	; 0x1802 <motors_hold>
 e56:	e9 cf       	rjmp	.-46     	; 0xe2a <robot_app+0x36>
 e58:	0e 94 f1 0b 	call	0x17e2	; 0x17e2 <motors_rotate_acw>
 e5c:	e6 cf       	rjmp	.-52     	; 0xe2a <robot_app+0x36>
 e5e:	0e 94 d1 0b 	call	0x17a2	; 0x17a2 <motors_backward>
 e62:	e3 cf       	rjmp	.-58     	; 0xe2a <robot_app+0x36>
 e64:	0e 94 e1 0b 	call	0x17c2	; 0x17c2 <motors_rotate_cw>
 e68:	e0 cf       	rjmp	.-64     	; 0xe2a <robot_app+0x36>

Disassembly of section .text.test_SPI_sending:

0000128e <test_SPI_sending>:
    128e:	2f ef       	ldi	r18, 0xFF	; 255
    1290:	81 ee       	ldi	r24, 0xE1	; 225
    1292:	94 e0       	ldi	r25, 0x04	; 4
    1294:	21 50       	subi	r18, 0x01	; 1
    1296:	80 40       	sbci	r24, 0x00	; 0
    1298:	90 40       	sbci	r25, 0x00	; 0
    129a:	e1 f7       	brne	.-8      	; 0x1294 <test_SPI_sending+0x6>
    129c:	00 c0       	rjmp	.+0      	; 0x129e <test_SPI_sending+0x10>
    129e:	00 00       	nop
    12a0:	61 e0       	ldi	r22, 0x01	; 1
    12a2:	80 e0       	ldi	r24, 0x00	; 0
    12a4:	0e 94 77 00 	call	0xee	; 0xee <__data_load_end>
    12a8:	40 e0       	ldi	r20, 0x00	; 0
    12aa:	60 e0       	ldi	r22, 0x00	; 0
    12ac:	83 e0       	ldi	r24, 0x03	; 3
    12ae:	0e 94 95 05 	call	0xb2a	; 0xb2a <init_spi>
    12b2:	62 e0       	ldi	r22, 0x02	; 2
    12b4:	80 e0       	ldi	r24, 0x00	; 0
    12b6:	0e 94 b4 01 	call	0x368	; 0x368 <dio_channel_set>
    12ba:	80 e5       	ldi	r24, 0x50	; 80
    12bc:	0e 94 03 0d 	call	0x1a06	; 0x1a06 <spi_write>
    12c0:	2f ef       	ldi	r18, 0xFF	; 255
    12c2:	83 ed       	ldi	r24, 0xD3	; 211
    12c4:	90 e3       	ldi	r25, 0x30	; 48
    12c6:	21 50       	subi	r18, 0x01	; 1
    12c8:	80 40       	sbci	r24, 0x00	; 0
    12ca:	90 40       	sbci	r25, 0x00	; 0
    12cc:	e1 f7       	brne	.-8      	; 0x12c6 <test_SPI_sending+0x38>
    12ce:	00 c0       	rjmp	.+0      	; 0x12d0 <test_SPI_sending+0x42>
    12d0:	00 00       	nop
    12d2:	ef cf       	rjmp	.-34     	; 0x12b2 <test_SPI_sending+0x24>

Disassembly of section .text.timer0_test:

0000173e <timer0_test>:
    173e:	61 e0       	ldi	r22, 0x01	; 1
    1740:	80 e0       	ldi	r24, 0x00	; 0
    1742:	0e 94 77 00 	call	0xee	; 0xee <__data_load_end>
    1746:	80 91 6e 00 	lds	r24, 0x006E	; 0x80006e <__TEXT_REGION_LENGTH__+0x7f806e>
    174a:	81 60       	ori	r24, 0x01	; 1
    174c:	80 93 6e 00 	sts	0x006E, r24	; 0x80006e <__TEXT_REGION_LENGTH__+0x7f806e>
    1750:	85 b5       	in	r24, 0x25	; 37
    1752:	88 7f       	andi	r24, 0xF8	; 248
    1754:	83 60       	ori	r24, 0x03	; 3
    1756:	85 bd       	out	0x25, r24	; 37
    1758:	8f b7       	in	r24, 0x3f	; 63
    175a:	80 68       	ori	r24, 0x80	; 128
    175c:	8f bf       	out	0x3f, r24	; 63
    175e:	ff cf       	rjmp	.-2      	; 0x175e <timer0_test+0x20>

Disassembly of section .text.__vector_16:

00000e6a <__vector_16>:
 e6a:	1f 92       	push	r1
 e6c:	0f 92       	push	r0
 e6e:	0f b6       	in	r0, 0x3f	; 63
 e70:	0f 92       	push	r0
 e72:	11 24       	eor	r1, r1
 e74:	2f 93       	push	r18
 e76:	3f 93       	push	r19
 e78:	4f 93       	push	r20
 e7a:	5f 93       	push	r21
 e7c:	6f 93       	push	r22
 e7e:	7f 93       	push	r23
 e80:	8f 93       	push	r24
 e82:	9f 93       	push	r25
 e84:	af 93       	push	r26
 e86:	bf 93       	push	r27
 e88:	ef 93       	push	r30
 e8a:	ff 93       	push	r31
 e8c:	80 91 92 01 	lds	r24, 0x0192	; 0x800192 <counts>
 e90:	90 91 93 01 	lds	r25, 0x0193	; 0x800193 <counts+0x1>
 e94:	01 96       	adiw	r24, 0x01	; 1
 e96:	90 93 93 01 	sts	0x0193, r25	; 0x800193 <counts+0x1>
 e9a:	80 93 92 01 	sts	0x0192, r24	; 0x800192 <counts>
 e9e:	80 91 92 01 	lds	r24, 0x0192	; 0x800192 <counts>
 ea2:	90 91 93 01 	lds	r25, 0x0193	; 0x800193 <counts+0x1>
 ea6:	88 3e       	cpi	r24, 0xE8	; 232
 ea8:	93 40       	sbci	r25, 0x03	; 3
 eaa:	40 f0       	brcs	.+16     	; 0xebc <__vector_16+0x52>
 eac:	62 e0       	ldi	r22, 0x02	; 2
 eae:	80 e0       	ldi	r24, 0x00	; 0
 eb0:	0e 94 b4 01 	call	0x368	; 0x368 <dio_channel_set>
 eb4:	10 92 93 01 	sts	0x0193, r1	; 0x800193 <counts+0x1>
 eb8:	10 92 92 01 	sts	0x0192, r1	; 0x800192 <counts>
 ebc:	ff 91       	pop	r31
 ebe:	ef 91       	pop	r30
 ec0:	bf 91       	pop	r27
 ec2:	af 91       	pop	r26
 ec4:	9f 91       	pop	r25
 ec6:	8f 91       	pop	r24
 ec8:	7f 91       	pop	r23
 eca:	6f 91       	pop	r22
 ecc:	5f 91       	pop	r21
 ece:	4f 91       	pop	r20
 ed0:	3f 91       	pop	r19
 ed2:	2f 91       	pop	r18
 ed4:	0f 90       	pop	r0
 ed6:	0f be       	out	0x3f, r0	; 63
 ed8:	0f 90       	pop	r0
 eda:	1f 90       	pop	r1
 edc:	18 95       	reti

Disassembly of section .text.ultra_sonic_app:

0000059c <ultra_sonic_app>:
 59c:	cf 93       	push	r28
 59e:	df 93       	push	r29
 5a0:	cd b7       	in	r28, 0x3d	; 61
 5a2:	de b7       	in	r29, 0x3e	; 62
 5a4:	27 97       	sbiw	r28, 0x07	; 7
 5a6:	0f b6       	in	r0, 0x3f	; 63
 5a8:	f8 94       	cli
 5aa:	de bf       	out	0x3e, r29	; 62
 5ac:	0f be       	out	0x3f, r0	; 63
 5ae:	cd bf       	out	0x3d, r28	; 61
 5b0:	2f ef       	ldi	r18, 0xFF	; 255
 5b2:	81 ee       	ldi	r24, 0xE1	; 225
 5b4:	94 e0       	ldi	r25, 0x04	; 4
 5b6:	21 50       	subi	r18, 0x01	; 1
 5b8:	80 40       	sbci	r24, 0x00	; 0
 5ba:	90 40       	sbci	r25, 0x00	; 0
 5bc:	e1 f7       	brne	.-8      	; 0x5b6 <ultra_sonic_app+0x1a>
 5be:	00 c0       	rjmp	.+0      	; 0x5c0 <ultra_sonic_app+0x24>
 5c0:	00 00       	nop
 5c2:	61 e0       	ldi	r22, 0x01	; 1
 5c4:	87 e1       	ldi	r24, 0x17	; 23
 5c6:	0e 94 77 00 	call	0xee	; 0xee <__data_load_end>
 5ca:	60 e0       	ldi	r22, 0x00	; 0
 5cc:	86 e1       	ldi	r24, 0x16	; 22
 5ce:	0e 94 77 00 	call	0xee	; 0xee <__data_load_end>
 5d2:	60 e0       	ldi	r22, 0x00	; 0
 5d4:	87 e1       	ldi	r24, 0x17	; 23
 5d6:	0e 94 b4 01 	call	0x368	; 0x368 <dio_channel_set>
 5da:	80 e8       	ldi	r24, 0x80	; 128
 5dc:	95 e2       	ldi	r25, 0x25	; 37
 5de:	0e 94 31 06 	call	0xc62	; 0xc62 <init_usart>
 5e2:	0e 94 21 0c 	call	0x1842	; 0x1842 <init_timer1>
 5e6:	2f ef       	ldi	r18, 0xFF	; 255
 5e8:	81 ee       	ldi	r24, 0xE1	; 225
 5ea:	94 e0       	ldi	r25, 0x04	; 4
 5ec:	21 50       	subi	r18, 0x01	; 1
 5ee:	80 40       	sbci	r24, 0x00	; 0
 5f0:	90 40       	sbci	r25, 0x00	; 0
 5f2:	e1 f7       	brne	.-8      	; 0x5ec <ultra_sonic_app+0x50>
 5f4:	00 c0       	rjmp	.+0      	; 0x5f6 <ultra_sonic_app+0x5a>
 5f6:	00 00       	nop
 5f8:	61 e0       	ldi	r22, 0x01	; 1
 5fa:	87 e1       	ldi	r24, 0x17	; 23
 5fc:	0e 94 b4 01 	call	0x368	; 0x368 <dio_channel_set>
 600:	25 e3       	ldi	r18, 0x35	; 53
 602:	2a 95       	dec	r18
 604:	f1 f7       	brne	.-4      	; 0x602 <ultra_sonic_app+0x66>
 606:	00 00       	nop
 608:	60 e0       	ldi	r22, 0x00	; 0
 60a:	87 e1       	ldi	r24, 0x17	; 23
 60c:	0e 94 b4 01 	call	0x368	; 0x368 <dio_channel_set>
 610:	0e 94 15 0d 	call	0x1a2a	; 0x1a2a <reset_timer1>
 614:	86 e1       	ldi	r24, 0x16	; 22
 616:	0e 94 6a 09 	call	0x12d4	; 0x12d4 <dio_channel_read>
 61a:	88 23       	and	r24, r24
 61c:	d9 f3       	breq	.-10     	; 0x614 <ultra_sonic_app+0x78>
 61e:	0e 94 b5 0c 	call	0x196a	; 0x196a <start_timer1>
 622:	86 e1       	ldi	r24, 0x16	; 22
 624:	0e 94 6a 09 	call	0x12d4	; 0x12d4 <dio_channel_read>
 628:	81 30       	cpi	r24, 0x01	; 1
 62a:	d9 f3       	breq	.-10     	; 0x622 <ultra_sonic_app+0x86>
 62c:	0e 94 fd 0c 	call	0x19fa	; 0x19fa <stop_timer1>
 630:	0e 94 d4 0c 	call	0x19a8	; 0x19a8 <get_timer1_counts>
 634:	96 95       	lsr	r25
 636:	87 95       	ror	r24
 638:	96 95       	lsr	r25
 63a:	87 95       	ror	r24
 63c:	bc 01       	movw	r22, r24
 63e:	80 e0       	ldi	r24, 0x00	; 0
 640:	90 e0       	ldi	r25, 0x00	; 0
 642:	0e 94 bd 06 	call	0xd7a	; 0xd7a <__floatunsisf>
 646:	2e ed       	ldi	r18, 0xDE	; 222
 648:	33 e9       	ldi	r19, 0x93	; 147
 64a:	47 e0       	ldi	r20, 0x07	; 7
 64c:	5d e3       	ldi	r21, 0x3D	; 61
 64e:	0e 94 23 0d 	call	0x1a46	; 0x1a46 <__mulsf3>
 652:	0e 94 76 08 	call	0x10ec	; 0x10ec <__fixunssfsi>
 656:	dc 01       	movw	r26, r24
 658:	cb 01       	movw	r24, r22
 65a:	4a e0       	ldi	r20, 0x0A	; 10
 65c:	50 e0       	ldi	r21, 0x00	; 0
 65e:	be 01       	movw	r22, r28
 660:	6f 5f       	subi	r22, 0xFF	; 255
 662:	7f 4f       	sbci	r23, 0xFF	; 255
 664:	0e 94 78 0c 	call	0x18f0	; 0x18f0 <utoa>
 668:	ce 01       	movw	r24, r28
 66a:	01 96       	adiw	r24, 0x01	; 1
 66c:	0e 94 69 0b 	call	0x16d2	; 0x16d2 <usart_write_text>
 670:	8a e0       	ldi	r24, 0x0A	; 10
 672:	0e 94 c6 0c 	call	0x198c	; 0x198c <usart_write_char>
 676:	8d e0       	ldi	r24, 0x0D	; 13
 678:	0e 94 c6 0c 	call	0x198c	; 0x198c <usart_write_char>
 67c:	8f ef       	ldi	r24, 0xFF	; 255
 67e:	9b e7       	ldi	r25, 0x7B	; 123
 680:	22 e9       	ldi	r18, 0x92	; 146
 682:	81 50       	subi	r24, 0x01	; 1
 684:	90 40       	sbci	r25, 0x00	; 0
 686:	20 40       	sbci	r18, 0x00	; 0
 688:	e1 f7       	brne	.-8      	; 0x682 <ultra_sonic_app+0xe6>
 68a:	b4 cf       	rjmp	.-152    	; 0x5f4 <ultra_sonic_app+0x58>

Disassembly of section .text.startup.main:

00001a34 <main>:
    1a34:	0e 94 9f 0b 	call	0x173e	; 0x173e <timer0_test>
    1a38:	80 e0       	ldi	r24, 0x00	; 0
    1a3a:	90 e0       	ldi	r25, 0x00	; 0
    1a3c:	08 95       	ret

Disassembly of section .text.libgcc.div:

00001318 <__udivmodsi4>:
    1318:	a1 e2       	ldi	r26, 0x21	; 33
    131a:	1a 2e       	mov	r1, r26
    131c:	aa 1b       	sub	r26, r26
    131e:	bb 1b       	sub	r27, r27
    1320:	fd 01       	movw	r30, r26
    1322:	0d c0       	rjmp	.+26     	; 0x133e <__udivmodsi4_ep>

00001324 <__udivmodsi4_loop>:
    1324:	aa 1f       	adc	r26, r26
    1326:	bb 1f       	adc	r27, r27
    1328:	ee 1f       	adc	r30, r30
    132a:	ff 1f       	adc	r31, r31
    132c:	a2 17       	cp	r26, r18
    132e:	b3 07       	cpc	r27, r19
    1330:	e4 07       	cpc	r30, r20
    1332:	f5 07       	cpc	r31, r21
    1334:	20 f0       	brcs	.+8      	; 0x133e <__udivmodsi4_ep>
    1336:	a2 1b       	sub	r26, r18
    1338:	b3 0b       	sbc	r27, r19
    133a:	e4 0b       	sbc	r30, r20
    133c:	f5 0b       	sbc	r31, r21

0000133e <__udivmodsi4_ep>:
    133e:	66 1f       	adc	r22, r22
    1340:	77 1f       	adc	r23, r23
    1342:	88 1f       	adc	r24, r24
    1344:	99 1f       	adc	r25, r25
    1346:	1a 94       	dec	r1
    1348:	69 f7       	brne	.-38     	; 0x1324 <__udivmodsi4_loop>
    134a:	60 95       	com	r22
    134c:	70 95       	com	r23
    134e:	80 95       	com	r24
    1350:	90 95       	com	r25
    1352:	9b 01       	movw	r18, r22
    1354:	ac 01       	movw	r20, r24
    1356:	bd 01       	movw	r22, r26
    1358:	cf 01       	movw	r24, r30
    135a:	08 95       	ret

Disassembly of section .text.avrlibc.fplib:

000010ec <__fixunssfsi>:
    10ec:	0e 94 b6 09 	call	0x136c	; 0x136c <__fp_splitA>
    10f0:	88 f0       	brcs	.+34     	; 0x1114 <__fixunssfsi+0x28>
    10f2:	9f 57       	subi	r25, 0x7F	; 127
    10f4:	98 f0       	brcs	.+38     	; 0x111c <__fixunssfsi+0x30>
    10f6:	b9 2f       	mov	r27, r25
    10f8:	99 27       	eor	r25, r25
    10fa:	b7 51       	subi	r27, 0x17	; 23
    10fc:	b0 f0       	brcs	.+44     	; 0x112a <__fixunssfsi+0x3e>
    10fe:	e1 f0       	breq	.+56     	; 0x1138 <__fixunssfsi+0x4c>
    1100:	66 0f       	add	r22, r22
    1102:	77 1f       	adc	r23, r23
    1104:	88 1f       	adc	r24, r24
    1106:	99 1f       	adc	r25, r25
    1108:	1a f0       	brmi	.+6      	; 0x1110 <__fixunssfsi+0x24>
    110a:	ba 95       	dec	r27
    110c:	c9 f7       	brne	.-14     	; 0x1100 <__fixunssfsi+0x14>
    110e:	14 c0       	rjmp	.+40     	; 0x1138 <__fixunssfsi+0x4c>
    1110:	b1 30       	cpi	r27, 0x01	; 1
    1112:	91 f0       	breq	.+36     	; 0x1138 <__fixunssfsi+0x4c>
    1114:	0e 94 e2 0c 	call	0x19c4	; 0x19c4 <__fp_zero>
    1118:	b1 e0       	ldi	r27, 0x01	; 1
    111a:	08 95       	ret
    111c:	0c 94 e2 0c 	jmp	0x19c4	; 0x19c4 <__fp_zero>
    1120:	67 2f       	mov	r22, r23
    1122:	78 2f       	mov	r23, r24
    1124:	88 27       	eor	r24, r24
    1126:	b8 5f       	subi	r27, 0xF8	; 248
    1128:	39 f0       	breq	.+14     	; 0x1138 <__fixunssfsi+0x4c>
    112a:	b9 3f       	cpi	r27, 0xF9	; 249
    112c:	cc f3       	brlt	.-14     	; 0x1120 <__fixunssfsi+0x34>
    112e:	86 95       	lsr	r24
    1130:	77 95       	ror	r23
    1132:	67 95       	ror	r22
    1134:	b3 95       	inc	r27
    1136:	d9 f7       	brne	.-10     	; 0x112e <__fixunssfsi+0x42>
    1138:	3e f4       	brtc	.+14     	; 0x1148 <__fixunssfsi+0x5c>
    113a:	90 95       	com	r25
    113c:	80 95       	com	r24
    113e:	70 95       	com	r23
    1140:	61 95       	neg	r22
    1142:	7f 4f       	sbci	r23, 0xFF	; 255
    1144:	8f 4f       	sbci	r24, 0xFF	; 255
    1146:	9f 4f       	sbci	r25, 0xFF	; 255
    1148:	08 95       	ret

Disassembly of section .text.avrlibc.fplib:

00000d7a <__floatunsisf>:
 d7a:	e8 94       	clt
 d7c:	09 c0       	rjmp	.+18     	; 0xd90 <__floatsisf+0x12>

00000d7e <__floatsisf>:
 d7e:	97 fb       	bst	r25, 7
 d80:	3e f4       	brtc	.+14     	; 0xd90 <__floatsisf+0x12>
 d82:	90 95       	com	r25
 d84:	80 95       	com	r24
 d86:	70 95       	com	r23
 d88:	61 95       	neg	r22
 d8a:	7f 4f       	sbci	r23, 0xFF	; 255
 d8c:	8f 4f       	sbci	r24, 0xFF	; 255
 d8e:	9f 4f       	sbci	r25, 0xFF	; 255
 d90:	99 23       	and	r25, r25
 d92:	a9 f0       	breq	.+42     	; 0xdbe <__floatsisf+0x40>
 d94:	f9 2f       	mov	r31, r25
 d96:	96 e9       	ldi	r25, 0x96	; 150
 d98:	bb 27       	eor	r27, r27
 d9a:	93 95       	inc	r25
 d9c:	f6 95       	lsr	r31
 d9e:	87 95       	ror	r24
 da0:	77 95       	ror	r23
 da2:	67 95       	ror	r22
 da4:	b7 95       	ror	r27
 da6:	f1 11       	cpse	r31, r1
 da8:	f8 cf       	rjmp	.-16     	; 0xd9a <__floatsisf+0x1c>
 daa:	fa f4       	brpl	.+62     	; 0xdea <__floatsisf+0x6c>
 dac:	bb 0f       	add	r27, r27
 dae:	11 f4       	brne	.+4      	; 0xdb4 <__floatsisf+0x36>
 db0:	60 ff       	sbrs	r22, 0
 db2:	1b c0       	rjmp	.+54     	; 0xdea <__floatsisf+0x6c>
 db4:	6f 5f       	subi	r22, 0xFF	; 255
 db6:	7f 4f       	sbci	r23, 0xFF	; 255
 db8:	8f 4f       	sbci	r24, 0xFF	; 255
 dba:	9f 4f       	sbci	r25, 0xFF	; 255
 dbc:	16 c0       	rjmp	.+44     	; 0xdea <__floatsisf+0x6c>
 dbe:	88 23       	and	r24, r24
 dc0:	11 f0       	breq	.+4      	; 0xdc6 <__floatsisf+0x48>
 dc2:	96 e9       	ldi	r25, 0x96	; 150
 dc4:	11 c0       	rjmp	.+34     	; 0xde8 <__floatsisf+0x6a>
 dc6:	77 23       	and	r23, r23
 dc8:	21 f0       	breq	.+8      	; 0xdd2 <__floatsisf+0x54>
 dca:	9e e8       	ldi	r25, 0x8E	; 142
 dcc:	87 2f       	mov	r24, r23
 dce:	76 2f       	mov	r23, r22
 dd0:	05 c0       	rjmp	.+10     	; 0xddc <__floatsisf+0x5e>
 dd2:	66 23       	and	r22, r22
 dd4:	71 f0       	breq	.+28     	; 0xdf2 <__floatsisf+0x74>
 dd6:	96 e8       	ldi	r25, 0x86	; 134
 dd8:	86 2f       	mov	r24, r22
 dda:	70 e0       	ldi	r23, 0x00	; 0
 ddc:	60 e0       	ldi	r22, 0x00	; 0
 dde:	2a f0       	brmi	.+10     	; 0xdea <__floatsisf+0x6c>
 de0:	9a 95       	dec	r25
 de2:	66 0f       	add	r22, r22
 de4:	77 1f       	adc	r23, r23
 de6:	88 1f       	adc	r24, r24
 de8:	da f7       	brpl	.-10     	; 0xde0 <__floatsisf+0x62>
 dea:	88 0f       	add	r24, r24
 dec:	96 95       	lsr	r25
 dee:	87 95       	ror	r24
 df0:	97 f9       	bld	r25, 7
 df2:	08 95       	ret

Disassembly of section .text.avrlibc.fplib:

0000135c <__fp_split3>:
    135c:	57 fd       	sbrc	r21, 7
    135e:	90 58       	subi	r25, 0x80	; 128
    1360:	44 0f       	add	r20, r20
    1362:	55 1f       	adc	r21, r21
    1364:	59 f0       	breq	.+22     	; 0x137c <__fp_splitA+0x10>
    1366:	5f 3f       	cpi	r21, 0xFF	; 255
    1368:	71 f0       	breq	.+28     	; 0x1386 <__fp_splitA+0x1a>
    136a:	47 95       	ror	r20

0000136c <__fp_splitA>:
    136c:	88 0f       	add	r24, r24
    136e:	97 fb       	bst	r25, 7
    1370:	99 1f       	adc	r25, r25
    1372:	61 f0       	breq	.+24     	; 0x138c <__fp_splitA+0x20>
    1374:	9f 3f       	cpi	r25, 0xFF	; 255
    1376:	79 f0       	breq	.+30     	; 0x1396 <__fp_splitA+0x2a>
    1378:	87 95       	ror	r24
    137a:	08 95       	ret
    137c:	12 16       	cp	r1, r18
    137e:	13 06       	cpc	r1, r19
    1380:	14 06       	cpc	r1, r20
    1382:	55 1f       	adc	r21, r21
    1384:	f2 cf       	rjmp	.-28     	; 0x136a <__fp_split3+0xe>
    1386:	46 95       	lsr	r20
    1388:	f1 df       	rcall	.-30     	; 0x136c <__fp_splitA>
    138a:	08 c0       	rjmp	.+16     	; 0x139c <__fp_splitA+0x30>
    138c:	16 16       	cp	r1, r22
    138e:	17 06       	cpc	r1, r23
    1390:	18 06       	cpc	r1, r24
    1392:	99 1f       	adc	r25, r25
    1394:	f1 cf       	rjmp	.-30     	; 0x1378 <__fp_splitA+0xc>
    1396:	86 95       	lsr	r24
    1398:	71 05       	cpc	r23, r1
    139a:	61 05       	cpc	r22, r1
    139c:	08 94       	sec
    139e:	08 95       	ret

Disassembly of section .text.avrlibc.fplib:

000019c4 <__fp_zero>:
    19c4:	e8 94       	clt

000019c6 <__fp_szero>:
    19c6:	bb 27       	eor	r27, r27
    19c8:	66 27       	eor	r22, r22
    19ca:	77 27       	eor	r23, r23
    19cc:	cb 01       	movw	r24, r22
    19ce:	97 f9       	bld	r25, 7
    19d0:	08 95       	ret

Disassembly of section .text.avrlibc.fplib:

00001a46 <__mulsf3>:
    1a46:	0e 94 c4 03 	call	0x788	; 0x788 <__mulsf3x>
    1a4a:	0c 94 b0 0b 	jmp	0x1760	; 0x1760 <__fp_round>

Disassembly of section .text.avrlibc.fplib:

0000076a <__mulsf3x-0x1e>:
 76a:	0e 94 e9 0c 	call	0x19d2	; 0x19d2 <__fp_pscA>
 76e:	38 f0       	brcs	.+14     	; 0x77e <scan_save_password+0xf2>
 770:	0e 94 f0 0c 	call	0x19e0	; 0x19e0 <__fp_pscB>
 774:	20 f0       	brcs	.+8      	; 0x77e <scan_save_password+0xf2>
 776:	95 23       	and	r25, r21
 778:	11 f0       	breq	.+4      	; 0x77e <scan_save_password+0xf2>
 77a:	0c 94 0f 0d 	jmp	0x1a1e	; 0x1a1e <__fp_inf>
 77e:	0c 94 27 0d 	jmp	0x1a4e	; 0x1a4e <__fp_nan>
 782:	11 24       	eor	r1, r1
 784:	0c 94 e3 0c 	jmp	0x19c6	; 0x19c6 <__fp_szero>

00000788 <__mulsf3x>:
 788:	0e 94 ae 09 	call	0x135c	; 0x135c <__fp_split3>
 78c:	70 f3       	brcs	.-36     	; 0x76a <scan_save_password+0xde>

0000078e <__mulsf3_pse>:
 78e:	95 9f       	mul	r25, r21
 790:	c1 f3       	breq	.-16     	; 0x782 <scan_save_password+0xf6>
 792:	95 0f       	add	r25, r21
 794:	50 e0       	ldi	r21, 0x00	; 0
 796:	55 1f       	adc	r21, r21
 798:	62 9f       	mul	r22, r18
 79a:	f0 01       	movw	r30, r0
 79c:	72 9f       	mul	r23, r18
 79e:	bb 27       	eor	r27, r27
 7a0:	f0 0d       	add	r31, r0
 7a2:	b1 1d       	adc	r27, r1
 7a4:	63 9f       	mul	r22, r19
 7a6:	aa 27       	eor	r26, r26
 7a8:	f0 0d       	add	r31, r0
 7aa:	b1 1d       	adc	r27, r1
 7ac:	aa 1f       	adc	r26, r26
 7ae:	64 9f       	mul	r22, r20
 7b0:	66 27       	eor	r22, r22
 7b2:	b0 0d       	add	r27, r0
 7b4:	a1 1d       	adc	r26, r1
 7b6:	66 1f       	adc	r22, r22
 7b8:	82 9f       	mul	r24, r18
 7ba:	22 27       	eor	r18, r18
 7bc:	b0 0d       	add	r27, r0
 7be:	a1 1d       	adc	r26, r1
 7c0:	62 1f       	adc	r22, r18
 7c2:	73 9f       	mul	r23, r19
 7c4:	b0 0d       	add	r27, r0
 7c6:	a1 1d       	adc	r26, r1
 7c8:	62 1f       	adc	r22, r18
 7ca:	83 9f       	mul	r24, r19
 7cc:	a0 0d       	add	r26, r0
 7ce:	61 1d       	adc	r22, r1
 7d0:	22 1f       	adc	r18, r18
 7d2:	74 9f       	mul	r23, r20
 7d4:	33 27       	eor	r19, r19
 7d6:	a0 0d       	add	r26, r0
 7d8:	61 1d       	adc	r22, r1
 7da:	23 1f       	adc	r18, r19
 7dc:	84 9f       	mul	r24, r20
 7de:	60 0d       	add	r22, r0
 7e0:	21 1d       	adc	r18, r1
 7e2:	82 2f       	mov	r24, r18
 7e4:	76 2f       	mov	r23, r22
 7e6:	6a 2f       	mov	r22, r26
 7e8:	11 24       	eor	r1, r1
 7ea:	9f 57       	subi	r25, 0x7F	; 127
 7ec:	50 40       	sbci	r21, 0x00	; 0
 7ee:	9a f0       	brmi	.+38     	; 0x816 <__DATA_REGION_LENGTH__+0x16>
 7f0:	f1 f0       	breq	.+60     	; 0x82e <__DATA_REGION_LENGTH__+0x2e>
 7f2:	88 23       	and	r24, r24
 7f4:	4a f0       	brmi	.+18     	; 0x808 <__DATA_REGION_LENGTH__+0x8>
 7f6:	ee 0f       	add	r30, r30
 7f8:	ff 1f       	adc	r31, r31
 7fa:	bb 1f       	adc	r27, r27
 7fc:	66 1f       	adc	r22, r22
 7fe:	77 1f       	adc	r23, r23
 800:	88 1f       	adc	r24, r24
 802:	91 50       	subi	r25, 0x01	; 1
 804:	50 40       	sbci	r21, 0x00	; 0
 806:	a9 f7       	brne	.-22     	; 0x7f2 <__mulsf3_pse+0x64>
 808:	9e 3f       	cpi	r25, 0xFE	; 254
 80a:	51 05       	cpc	r21, r1
 80c:	80 f0       	brcs	.+32     	; 0x82e <__DATA_REGION_LENGTH__+0x2e>
 80e:	0c 94 0f 0d 	jmp	0x1a1e	; 0x1a1e <__fp_inf>
 812:	0c 94 e3 0c 	jmp	0x19c6	; 0x19c6 <__fp_szero>
 816:	5f 3f       	cpi	r21, 0xFF	; 255
 818:	e4 f3       	brlt	.-8      	; 0x812 <__DATA_REGION_LENGTH__+0x12>
 81a:	98 3e       	cpi	r25, 0xE8	; 232
 81c:	d4 f3       	brlt	.-12     	; 0x812 <__DATA_REGION_LENGTH__+0x12>
 81e:	86 95       	lsr	r24
 820:	77 95       	ror	r23
 822:	67 95       	ror	r22
 824:	b7 95       	ror	r27
 826:	f7 95       	ror	r31
 828:	e7 95       	ror	r30
 82a:	9f 5f       	subi	r25, 0xFF	; 255
 82c:	c1 f7       	brne	.-16     	; 0x81e <__DATA_REGION_LENGTH__+0x1e>
 82e:	fe 2b       	or	r31, r30
 830:	88 0f       	add	r24, r24
 832:	91 1d       	adc	r25, r1
 834:	96 95       	lsr	r25
 836:	87 95       	ror	r24
 838:	97 f9       	bld	r25, 7
 83a:	08 95       	ret

Disassembly of section .text.avrlibc.fplib:

00001a1e <__fp_inf>:
    1a1e:	97 f9       	bld	r25, 7
    1a20:	9f 67       	ori	r25, 0x7F	; 127
    1a22:	80 e8       	ldi	r24, 0x80	; 128
    1a24:	70 e0       	ldi	r23, 0x00	; 0
    1a26:	60 e0       	ldi	r22, 0x00	; 0
    1a28:	08 95       	ret

Disassembly of section .text.avrlibc.fplib:

00001a4e <__fp_nan>:
    1a4e:	9f ef       	ldi	r25, 0xFF	; 255
    1a50:	80 ec       	ldi	r24, 0xC0	; 192
    1a52:	08 95       	ret

Disassembly of section .text.avrlibc.fplib:

000019d2 <__fp_pscA>:
    19d2:	00 24       	eor	r0, r0
    19d4:	0a 94       	dec	r0
    19d6:	16 16       	cp	r1, r22
    19d8:	17 06       	cpc	r1, r23
    19da:	18 06       	cpc	r1, r24
    19dc:	09 06       	cpc	r0, r25
    19de:	08 95       	ret

Disassembly of section .text.avrlibc.fplib:

000019e0 <__fp_pscB>:
    19e0:	00 24       	eor	r0, r0
    19e2:	0a 94       	dec	r0
    19e4:	12 16       	cp	r1, r18
    19e6:	13 06       	cpc	r1, r19
    19e8:	14 06       	cpc	r1, r20
    19ea:	05 06       	cpc	r0, r21
    19ec:	08 95       	ret

Disassembly of section .text.avrlibc.fplib:

00001760 <__fp_round>:
    1760:	09 2e       	mov	r0, r25
    1762:	03 94       	inc	r0
    1764:	00 0c       	add	r0, r0
    1766:	11 f4       	brne	.+4      	; 0x176c <__fp_round+0xc>
    1768:	88 23       	and	r24, r24
    176a:	52 f0       	brmi	.+20     	; 0x1780 <__fp_round+0x20>
    176c:	bb 0f       	add	r27, r27
    176e:	40 f4       	brcc	.+16     	; 0x1780 <__fp_round+0x20>
    1770:	bf 2b       	or	r27, r31
    1772:	11 f4       	brne	.+4      	; 0x1778 <__fp_round+0x18>
    1774:	60 ff       	sbrs	r22, 0
    1776:	04 c0       	rjmp	.+8      	; 0x1780 <__fp_round+0x20>
    1778:	6f 5f       	subi	r22, 0xFF	; 255
    177a:	7f 4f       	sbci	r23, 0xFF	; 255
    177c:	8f 4f       	sbci	r24, 0xFF	; 255
    177e:	9f 4f       	sbci	r25, 0xFF	; 255
    1780:	08 95       	ret

Disassembly of section .text.avrlibc:

000018c4 <itoa>:
    18c4:	45 32       	cpi	r20, 0x25	; 37
    18c6:	51 05       	cpc	r21, r1
    18c8:	20 f4       	brcc	.+8      	; 0x18d2 <itoa+0xe>
    18ca:	42 30       	cpi	r20, 0x02	; 2
    18cc:	10 f0       	brcs	.+4      	; 0x18d2 <itoa+0xe>
    18ce:	0c 94 6d 0c 	jmp	0x18da	; 0x18da <__itoa_ncheck>
    18d2:	fb 01       	movw	r30, r22
    18d4:	10 82       	st	Z, r1
    18d6:	cb 01       	movw	r24, r22
    18d8:	08 95       	ret

Disassembly of section .text.avrlibc:

000018da <__itoa_ncheck>:
    18da:	bb 27       	eor	r27, r27
    18dc:	4a 30       	cpi	r20, 0x0A	; 10
    18de:	31 f4       	brne	.+12     	; 0x18ec <__itoa_ncheck+0x12>
    18e0:	99 23       	and	r25, r25
    18e2:	22 f4       	brpl	.+8      	; 0x18ec <__itoa_ncheck+0x12>
    18e4:	bd e2       	ldi	r27, 0x2D	; 45
    18e6:	90 95       	com	r25
    18e8:	81 95       	neg	r24
    18ea:	9f 4f       	sbci	r25, 0xFF	; 255
    18ec:	0c 94 f9 0a 	jmp	0x15f2	; 0x15f2 <__utoa_common>

Disassembly of section .text.avrlibc:

000018f0 <utoa>:
    18f0:	45 32       	cpi	r20, 0x25	; 37
    18f2:	51 05       	cpc	r21, r1
    18f4:	20 f4       	brcc	.+8      	; 0x18fe <utoa+0xe>
    18f6:	42 30       	cpi	r20, 0x02	; 2
    18f8:	10 f0       	brcs	.+4      	; 0x18fe <utoa+0xe>
    18fa:	0c 94 f8 0a 	jmp	0x15f0	; 0x15f0 <__utoa_ncheck>
    18fe:	fb 01       	movw	r30, r22
    1900:	10 82       	st	Z, r1
    1902:	cb 01       	movw	r24, r22
    1904:	08 95       	ret

Disassembly of section .text.avrlibc:

000015f0 <__utoa_ncheck>:
    15f0:	bb 27       	eor	r27, r27

000015f2 <__utoa_common>:
    15f2:	fb 01       	movw	r30, r22
    15f4:	55 27       	eor	r21, r21
    15f6:	aa 27       	eor	r26, r26
    15f8:	88 0f       	add	r24, r24
    15fa:	99 1f       	adc	r25, r25
    15fc:	aa 1f       	adc	r26, r26
    15fe:	a4 17       	cp	r26, r20
    1600:	10 f0       	brcs	.+4      	; 0x1606 <__utoa_common+0x14>
    1602:	a4 1b       	sub	r26, r20
    1604:	83 95       	inc	r24
    1606:	50 51       	subi	r21, 0x10	; 16
    1608:	b9 f7       	brne	.-18     	; 0x15f8 <__utoa_common+0x6>
    160a:	a0 5d       	subi	r26, 0xD0	; 208
    160c:	aa 33       	cpi	r26, 0x3A	; 58
    160e:	08 f0       	brcs	.+2      	; 0x1612 <__utoa_common+0x20>
    1610:	a9 5d       	subi	r26, 0xD9	; 217
    1612:	a1 93       	st	Z+, r26
    1614:	00 97       	sbiw	r24, 0x00	; 0
    1616:	79 f7       	brne	.-34     	; 0x15f6 <__utoa_common+0x4>
    1618:	b1 11       	cpse	r27, r1
    161a:	b1 93       	st	Z+, r27
    161c:	11 92       	st	Z+, r1
    161e:	cb 01       	movw	r24, r22
    1620:	0c 94 11 0c 	jmp	0x1822	; 0x1822 <strrev>

Disassembly of section .text.avrlibc:

00001822 <strrev>:
    1822:	dc 01       	movw	r26, r24
    1824:	fc 01       	movw	r30, r24
    1826:	67 2f       	mov	r22, r23
    1828:	71 91       	ld	r23, Z+
    182a:	77 23       	and	r23, r23
    182c:	e1 f7       	brne	.-8      	; 0x1826 <strrev+0x4>
    182e:	32 97       	sbiw	r30, 0x02	; 2
    1830:	04 c0       	rjmp	.+8      	; 0x183a <strrev+0x18>
    1832:	7c 91       	ld	r23, X
    1834:	6d 93       	st	X+, r22
    1836:	70 83       	st	Z, r23
    1838:	62 91       	ld	r22, -Z
    183a:	ae 17       	cp	r26, r30
    183c:	bf 07       	cpc	r27, r31
    183e:	c8 f3       	brcs	.-14     	; 0x1832 <strrev+0x10>
    1840:	08 95       	ret
