
avr_sdk.elf:     file format elf32-avr

Sections:
Idx Name          Size      VMA       LMA       File off  Algn
  0 .data         00000000  00800100  0000122d  000012a1  2**0
                  ALLOC, LOAD, DATA
  1 .text         000000d8  00000000  00000000  00000074  2**1
                  CONTENTS, ALLOC, LOAD, READONLY, CODE
  2 .comment      0000002f  00000000  00000000  000012a1  2**0
                  CONTENTS, READONLY
  3 .debug_info   000005f4  00000000  00000000  000012d0  2**0
                  CONTENTS, READONLY, DEBUGGING
  4 .debug_abbrev 000005a2  00000000  00000000  000018c4  2**0
                  CONTENTS, READONLY, DEBUGGING
  5 .debug_line   0000001a  00000000  00000000  00001e66  2**0
                  CONTENTS, READONLY, DEBUGGING
  6 .debug_str    00000208  00000000  00000000  00001e80  2**0
                  CONTENTS, READONLY, DEBUGGING
  7 .text         00000004  0000119a  0000119a  0000120e  2**1
                  CONTENTS, ALLOC, LOAD, READONLY, CODE
  8 .note.gnu.avr.deviceinfo 00000040  00000000  00000000  00002088  2**2
                  CONTENTS, READONLY, DEBUGGING
  9 .text.init_usart 00000090  000008f6  000008f6  0000096a  2**1
                  CONTENTS, ALLOC, LOAD, READONLY, CODE
 10 .text.usart_write_char 0000000e  00001116  00001116  0000118a  2**1
                  CONTENTS, ALLOC, LOAD, READONLY, CODE
 11 .text.usart_write_text 00000026  00000f74  00000f74  00000fe8  2**1
                  CONTENTS, ALLOC, LOAD, READONLY, CODE
 12 .text.usart_read_char 0000000e  00001124  00001124  00001198  2**1
                  CONTENTS, ALLOC, LOAD, READONLY, CODE
 13 .text.usart_data_available 0000000c  0000116a  0000116a  000011de  2**1
                  CONTENTS, ALLOC, LOAD, READONLY, CODE
 14 .text.init_adc 00000034  00000e8a  00000e8a  00000efe  2**1
                  CONTENTS, ALLOC, LOAD, READONLY, CODE
 15 .text.adc_channel_read 0000002c  00000ef2  00000ef2  00000f66  2**1
                  CONTENTS, ALLOC, LOAD, READONLY, CODE
 16 .text.get_analog_value 00000040  00000d52  00000d52  00000dc6  2**1
                  CONTENTS, ALLOC, LOAD, READONLY, CODE
 17 .text.EEPROM_write 00000010  00001106  00001106  0000117a  2**1
                  CONTENTS, ALLOC, LOAD, READONLY, CODE
 18 .text.EEPROM_read 0000000e  00001132  00001132  000011a6  2**1
                  CONTENTS, ALLOC, LOAD, READONLY, CODE
 19 .text.dio_channel_config 0000014c  000000d8  000000d8  0000014c  2**1
                  CONTENTS, ALLOC, LOAD, READONLY, CODE
 20 .text.dio_channel_set 0000012c  00000224  00000224  00000298  2**1
                  CONTENTS, ALLOC, LOAD, READONLY, CODE
 21 .text.dio_channel_read 00000044  00000c86  00000c86  00000cfa  2**1
                  CONTENTS, ALLOC, LOAD, READONLY, CODE
 22 .text.dio_port_config 00000018  0000109a  0000109a  0000110e  2**1
                  CONTENTS, ALLOC, LOAD, READONLY, CODE
 23 .text.dio_port_set 00000018  000010b2  000010b2  00001126  2**1
                  CONTENTS, ALLOC, LOAD, READONLY, CODE
 24 .text.display_digit_private 00000058  00000b9e  00000b9e  00000c12  2**1
                  CONTENTS, ALLOC, LOAD, READONLY, CODE
 25 .text.init_seven_segment 0000003e  00000dd2  00000dd2  00000e46  2**1
                  CONTENTS, ALLOC, LOAD, READONLY, CODE
 26 .text.display_digit 00000014  000010ca  000010ca  0000113e  2**1
                  CONTENTS, ALLOC, LOAD, READONLY, CODE
 27 .rodata.segDataCathod 0000000a  0080017c  0000121e  00001292  2**0
                  CONTENTS, ALLOC, LOAD, DATA
 28 .text.send_instruction_4bit 00000062  00000ae0  00000ae0  00000b54  2**1
                  CONTENTS, ALLOC, LOAD, READONLY, CODE
 29 .text.send_instruction_8bit 000000b8  000006d6  000006d6  0000074a  2**1
                  CONTENTS, ALLOC, LOAD, READONLY, CODE
 30 .text.send_data_8bit 000000b8  0000078e  0000078e  00000802  2**1
                  CONTENTS, ALLOC, LOAD, READONLY, CODE
 31 .text.init_lcd 000000b0  00000846  00000846  000008ba  2**1
                  CONTENTS, ALLOC, LOAD, READONLY, CODE
 32 .text.lcd_write_text 0000004a  00000bf6  00000bf6  00000c6a  2**1
                  CONTENTS, ALLOC, LOAD, READONLY, CODE
 33 .text.lcd_write_char 0000002a  00000f4a  00000f4a  00000fbe  2**1
                  CONTENTS, ALLOC, LOAD, READONLY, CODE
 34 .text.lcd_write_char_cp 00000004  0000119e  0000119e  00001212  2**1
                  CONTENTS, ALLOC, LOAD, READONLY, CODE
 35 .text.lcd_write_text_cp 0000002c  00000f1e  00000f1e  00000f92  2**1
                  CONTENTS, ALLOC, LOAD, READONLY, CODE
 36 .text.lcd_clear 00000014  000010de  000010de  00001152  2**1
                  CONTENTS, ALLOC, LOAD, READONLY, CODE
 37 .text.output_scan_pattern 00000034  00000ebe  00000ebe  00000f32  2**1
                  CONTENTS, ALLOC, LOAD, READONLY, CODE
 38 .text.scan    0000006a  00000a76  00000a76  00000aea  2**1
                  CONTENTS, ALLOC, LOAD, READONLY, CODE
 39 .text.init_keypad 00000046  00000c40  00000c40  00000cb4  2**1
                  CONTENTS, ALLOC, LOAD, READONLY, CODE
 40 .text.get_key_clicked 00000024  00000f9a  00000f9a  0000100e  2**1
                  CONTENTS, ALLOC, LOAD, READONLY, CODE
 41 .text.get_key_pressed 0000001a  00001080  00001080  000010f4  2**1
                  CONTENTS, ALLOC, LOAD, READONLY, CODE
 42 .rodata.MAPPEDCHARS 00000010  0080016c  0000120e  00001282  2**0
                  CONTENTS, ALLOC, LOAD, DATA
 43 .rodata.SCAN_PATTERN 00000005  00800186  00001228  0000129c  2**0
                  CONTENTS, ALLOC, LOAD, DATA
 44 .text.init_motors 00000040  00000d92  00000d92  00000e06  2**1
                  CONTENTS, ALLOC, LOAD, READONLY, CODE
 45 .text.motors_forward 00000020  00000fe0  00000fe0  00001054  2**1
                  CONTENTS, ALLOC, LOAD, READONLY, CODE
 46 .text.motors_backward 00000020  00001000  00001000  00001074  2**1
                  CONTENTS, ALLOC, LOAD, READONLY, CODE
 47 .text.motors_rotate_cw 00000020  00001020  00001020  00001094  2**1
                  CONTENTS, ALLOC, LOAD, READONLY, CODE
 48 .text.motors_rotate_acw 00000020  00001040  00001040  000010b4  2**1
                  CONTENTS, ALLOC, LOAD, READONLY, CODE
 49 .text.motors_hold 00000020  00001060  00001060  000010d4  2**1
                  CONTENTS, ALLOC, LOAD, READONLY, CODE
 50 .rodata       0000006c  00800100  000011a2  00001216  2**0
                  CONTENTS, ALLOC, LOAD, DATA
 51 .text.init_system 0000003e  00000e10  00000e10  00000e84  2**1
                  CONTENTS, ALLOC, LOAD, READONLY, CODE
 52 .text.is_this_new_safe 00000014  000010f2  000010f2  00001166  2**1
                  CONTENTS, ALLOC, LOAD, READONLY, CODE
 53 .text.enter_new_password_handeller 00000108  00000350  00000350  000003c4  2**1
                  CONTENTS, ALLOC, LOAD, READONLY, CODE
 54 .text.load_save_configuration 0000005c  00000b42  00000b42  00000bb6  2**1
                  CONTENTS, ALLOC, LOAD, READONLY, CODE
 55 .text.scan_save_password 000000de  00000458  00000458  000004cc  2**1
                  CONTENTS, ALLOC, LOAD, READONLY, CODE
 56 .text.key_safe_app 000000ce  00000608  00000608  0000067c  2**1
                  CONTENTS, ALLOC, LOAD, READONLY, CODE
 57 .text.is_passwords_equal 0000003c  00000e4e  00000e4e  00000ec2  2**1
                  CONTENTS, ALLOC, LOAD, READONLY, CODE
 58 .text.robot_app 00000076  00000a00  00000a00  00000a74  2**1
                  CONTENTS, ALLOC, LOAD, READONLY, CODE
 59 .text.startup.main 0000000a  00001182  00001182  000011f6  2**1
                  CONTENTS, ALLOC, LOAD, READONLY, CODE
 60 .text.libgcc.div 00000044  00000cca  00000cca  00000d3e  2**1
                  CONTENTS, ALLOC, LOAD, READONLY, CODE
 61 .text.avrlibc.fplib 0000007a  00000986  00000986  000009fa  2**1
                  CONTENTS, ALLOC, LOAD, READONLY, CODE
 62 .text.avrlibc.fplib 00000008  0000118c  0000118c  00001200  2**1
                  CONTENTS, ALLOC, LOAD, READONLY, CODE
 63 .text.avrlibc.fplib 000000d2  00000536  00000536  000005aa  2**1
                  CONTENTS, ALLOC, LOAD, READONLY, CODE
 64 .text.avrlibc.fplib 0000000c  00001176  00001176  000011ea  2**1
                  CONTENTS, ALLOC, LOAD, READONLY, CODE
 65 .text.avrlibc.fplib 00000006  00001194  00001194  00001208  2**1
                  CONTENTS, ALLOC, LOAD, READONLY, CODE
 66 .text.avrlibc.fplib 0000000e  00001140  00001140  000011b4  2**1
                  CONTENTS, ALLOC, LOAD, READONLY, CODE
 67 .text.avrlibc.fplib 0000000e  0000114e  0000114e  000011c2  2**1
                  CONTENTS, ALLOC, LOAD, READONLY, CODE
 68 .text.avrlibc.fplib 00000022  00000fbe  00000fbe  00001032  2**1
                  CONTENTS, ALLOC, LOAD, READONLY, CODE
 69 .text.avrlibc.fplib 00000044  00000d0e  00000d0e  00000d82  2**1
                  CONTENTS, ALLOC, LOAD, READONLY, CODE
 70 .text.avrlibc.fplib 0000000e  0000115c  0000115c  000011d0  2**1
                  CONTENTS, ALLOC, LOAD, READONLY, CODE

Disassembly of section .text:

00000000 <__vectors>:
   0:	0c 94 42 00 	jmp	0x84	; 0x84 <__ctors_end>
   4:	0c 94 cd 08 	jmp	0x119a	; 0x119a <__bad_interrupt>
   8:	0c 94 cd 08 	jmp	0x119a	; 0x119a <__bad_interrupt>
   c:	0c 94 cd 08 	jmp	0x119a	; 0x119a <__bad_interrupt>
  10:	0c 94 cd 08 	jmp	0x119a	; 0x119a <__bad_interrupt>
  14:	0c 94 cd 08 	jmp	0x119a	; 0x119a <__bad_interrupt>
  18:	0c 94 cd 08 	jmp	0x119a	; 0x119a <__bad_interrupt>
  1c:	0c 94 cd 08 	jmp	0x119a	; 0x119a <__bad_interrupt>
  20:	0c 94 cd 08 	jmp	0x119a	; 0x119a <__bad_interrupt>
  24:	0c 94 cd 08 	jmp	0x119a	; 0x119a <__bad_interrupt>
  28:	0c 94 cd 08 	jmp	0x119a	; 0x119a <__bad_interrupt>
  2c:	0c 94 cd 08 	jmp	0x119a	; 0x119a <__bad_interrupt>
  30:	0c 94 cd 08 	jmp	0x119a	; 0x119a <__bad_interrupt>
  34:	0c 94 cd 08 	jmp	0x119a	; 0x119a <__bad_interrupt>
  38:	0c 94 cd 08 	jmp	0x119a	; 0x119a <__bad_interrupt>
  3c:	0c 94 cd 08 	jmp	0x119a	; 0x119a <__bad_interrupt>
  40:	0c 94 cd 08 	jmp	0x119a	; 0x119a <__bad_interrupt>
  44:	0c 94 cd 08 	jmp	0x119a	; 0x119a <__bad_interrupt>
  48:	0c 94 cd 08 	jmp	0x119a	; 0x119a <__bad_interrupt>
  4c:	0c 94 cd 08 	jmp	0x119a	; 0x119a <__bad_interrupt>
  50:	0c 94 cd 08 	jmp	0x119a	; 0x119a <__bad_interrupt>
  54:	0c 94 cd 08 	jmp	0x119a	; 0x119a <__bad_interrupt>
  58:	0c 94 cd 08 	jmp	0x119a	; 0x119a <__bad_interrupt>
  5c:	0c 94 cd 08 	jmp	0x119a	; 0x119a <__bad_interrupt>
  60:	0c 94 cd 08 	jmp	0x119a	; 0x119a <__bad_interrupt>
  64:	0c 94 cd 08 	jmp	0x119a	; 0x119a <__bad_interrupt>

00000068 <.dinit>:
  68:	01 7c       	andi	r16, 0xC1	; 193
  6a:	01 86       	std	Z+9, r0	; 0x09
  6c:	00 12       	cpse	r0, r16
  6e:	1e 01       	movw	r2, r28
  70:	6c 01       	movw	r12, r24
  72:	7c 00       	.word	0x007c	; ????
  74:	12 0e       	add	r1, r18
  76:	01 86       	std	Z+9, r0	; 0x09
  78:	01 8b       	std	Z+17, r16	; 0x11
  7a:	00 12       	cpse	r0, r16
  7c:	28 01       	movw	r4, r16
  7e:	00 01       	movw	r0, r0
  80:	6c 00       	.word	0x006c	; ????
  82:	11 a2       	std	Z+33, r1	; 0x21

00000084 <__ctors_end>:
  84:	11 24       	eor	r1, r1
  86:	1f be       	out	0x3f, r1	; 63
  88:	cf ef       	ldi	r28, 0xFF	; 255
  8a:	d8 e0       	ldi	r29, 0x08	; 8
  8c:	de bf       	out	0x3e, r29	; 62
  8e:	cd bf       	out	0x3d, r28	; 61

00000090 <__do_copy_data>:
  90:	e8 e6       	ldi	r30, 0x68	; 104
  92:	f0 e0       	ldi	r31, 0x00	; 0
  94:	40 e0       	ldi	r20, 0x00	; 0
  96:	17 c0       	rjmp	.+46     	; 0xc6 <__do_clear_bss+0x8>
  98:	b5 91       	lpm	r27, Z+
  9a:	a5 91       	lpm	r26, Z+
  9c:	35 91       	lpm	r19, Z+
  9e:	25 91       	lpm	r18, Z+
  a0:	05 91       	lpm	r16, Z+
  a2:	07 fd       	sbrc	r16, 7
  a4:	0c c0       	rjmp	.+24     	; 0xbe <__do_clear_bss>
  a6:	95 91       	lpm	r25, Z+
  a8:	85 91       	lpm	r24, Z+
  aa:	ef 01       	movw	r28, r30
  ac:	f9 2f       	mov	r31, r25
  ae:	e8 2f       	mov	r30, r24
  b0:	05 90       	lpm	r0, Z+
  b2:	0d 92       	st	X+, r0
  b4:	a2 17       	cp	r26, r18
  b6:	b3 07       	cpc	r27, r19
  b8:	d9 f7       	brne	.-10     	; 0xb0 <__do_copy_data+0x20>
  ba:	fe 01       	movw	r30, r28
  bc:	04 c0       	rjmp	.+8      	; 0xc6 <__do_clear_bss+0x8>

000000be <__do_clear_bss>:
  be:	1d 92       	st	X+, r1
  c0:	a2 17       	cp	r26, r18
  c2:	b3 07       	cpc	r27, r19
  c4:	e1 f7       	brne	.-8      	; 0xbe <__do_clear_bss>
  c6:	e4 38       	cpi	r30, 0x84	; 132
  c8:	f4 07       	cpc	r31, r20
  ca:	31 f7       	brne	.-52     	; 0x98 <__do_copy_data+0x8>
  cc:	0e 94 c1 08 	call	0x1182	; 0x1182 <main>
  d0:	0c 94 6a 00 	jmp	0xd4	; 0xd4 <_exit>

000000d4 <_exit>:
  d4:	f8 94       	cli

000000d6 <__stop_program>:
  d6:	ff cf       	rjmp	.-2      	; 0xd6 <__stop_program>

Disassembly of section .text:

0000119a <__bad_interrupt>:
    119a:	0c 94 00 00 	jmp	0	; 0x0 <__TEXT_REGION_ORIGIN__>

Disassembly of section .text.init_usart:

000008f6 <init_usart>:
 8f6:	cf 93       	push	r28
 8f8:	df 93       	push	r29
 8fa:	9c 01       	movw	r18, r24
 8fc:	e2 ec       	ldi	r30, 0xC2	; 194
 8fe:	f0 e0       	ldi	r31, 0x00	; 0
 900:	80 81       	ld	r24, Z
 902:	8f 7d       	andi	r24, 0xDF	; 223
 904:	80 83       	st	Z, r24
 906:	80 81       	ld	r24, Z
 908:	8f 7e       	andi	r24, 0xEF	; 239
 90a:	80 83       	st	Z, r24
 90c:	80 81       	ld	r24, Z
 90e:	87 7f       	andi	r24, 0xF7	; 247
 910:	80 83       	st	Z, r24
 912:	c1 ec       	ldi	r28, 0xC1	; 193
 914:	d0 e0       	ldi	r29, 0x00	; 0
 916:	88 81       	ld	r24, Y
 918:	8b 7f       	andi	r24, 0xFB	; 251
 91a:	88 83       	st	Y, r24
 91c:	80 81       	ld	r24, Z
 91e:	84 60       	ori	r24, 0x04	; 4
 920:	80 83       	st	Z, r24
 922:	80 81       	ld	r24, Z
 924:	82 60       	ori	r24, 0x02	; 2
 926:	80 83       	st	Z, r24
 928:	e0 ec       	ldi	r30, 0xC0	; 192
 92a:	f0 e0       	ldi	r31, 0x00	; 0
 92c:	80 81       	ld	r24, Z
 92e:	8d 7f       	andi	r24, 0xFD	; 253
 930:	80 83       	st	Z, r24
 932:	c9 01       	movw	r24, r18
 934:	a0 e0       	ldi	r26, 0x00	; 0
 936:	b0 e0       	ldi	r27, 0x00	; 0
 938:	88 0f       	add	r24, r24
 93a:	99 1f       	adc	r25, r25
 93c:	aa 1f       	adc	r26, r26
 93e:	bb 1f       	adc	r27, r27
 940:	88 0f       	add	r24, r24
 942:	99 1f       	adc	r25, r25
 944:	aa 1f       	adc	r26, r26
 946:	bb 1f       	adc	r27, r27
 948:	9c 01       	movw	r18, r24
 94a:	ad 01       	movw	r20, r26
 94c:	22 0f       	add	r18, r18
 94e:	33 1f       	adc	r19, r19
 950:	44 1f       	adc	r20, r20
 952:	55 1f       	adc	r21, r21
 954:	22 0f       	add	r18, r18
 956:	33 1f       	adc	r19, r19
 958:	44 1f       	adc	r20, r20
 95a:	55 1f       	adc	r21, r21
 95c:	60 e0       	ldi	r22, 0x00	; 0
 95e:	74 e2       	ldi	r23, 0x24	; 36
 960:	84 ef       	ldi	r24, 0xF4	; 244
 962:	90 e0       	ldi	r25, 0x00	; 0
 964:	0e 94 65 06 	call	0xcca	; 0xcca <__udivmodsi4>
 968:	21 50       	subi	r18, 0x01	; 1
 96a:	31 09       	sbc	r19, r1
 96c:	30 93 c5 00 	sts	0x00C5, r19	; 0x8000c5 <__TEXT_REGION_LENGTH__+0x7f80c5>
 970:	20 93 c4 00 	sts	0x00C4, r18	; 0x8000c4 <__TEXT_REGION_LENGTH__+0x7f80c4>
 974:	88 81       	ld	r24, Y
 976:	80 61       	ori	r24, 0x10	; 16
 978:	88 83       	st	Y, r24
 97a:	88 81       	ld	r24, Y
 97c:	88 60       	ori	r24, 0x08	; 8
 97e:	88 83       	st	Y, r24
 980:	df 91       	pop	r29
 982:	cf 91       	pop	r28
 984:	08 95       	ret

Disassembly of section .text.usart_write_char:

00001116 <usart_write_char>:
    1116:	90 91 c0 00 	lds	r25, 0x00C0	; 0x8000c0 <__TEXT_REGION_LENGTH__+0x7f80c0>
    111a:	95 ff       	sbrs	r25, 5
    111c:	fc cf       	rjmp	.-8      	; 0x1116 <usart_write_char>
    111e:	80 93 c6 00 	sts	0x00C6, r24	; 0x8000c6 <__TEXT_REGION_LENGTH__+0x7f80c6>
    1122:	08 95       	ret

Disassembly of section .text.usart_write_text:

00000f74 <usart_write_text>:
 f74:	dc 01       	movw	r26, r24
 f76:	2c 91       	ld	r18, X
 f78:	22 23       	and	r18, r18
 f7a:	71 f0       	breq	.+28     	; 0xf98 <usart_write_text+0x24>
 f7c:	30 e0       	ldi	r19, 0x00	; 0
 f7e:	90 91 c0 00 	lds	r25, 0x00C0	; 0x8000c0 <__TEXT_REGION_LENGTH__+0x7f80c0>
 f82:	95 ff       	sbrs	r25, 5
 f84:	fc cf       	rjmp	.-8      	; 0xf7e <usart_write_text+0xa>
 f86:	20 93 c6 00 	sts	0x00C6, r18	; 0x8000c6 <__TEXT_REGION_LENGTH__+0x7f80c6>
 f8a:	3f 5f       	subi	r19, 0xFF	; 255
 f8c:	fd 01       	movw	r30, r26
 f8e:	e3 0f       	add	r30, r19
 f90:	f1 1d       	adc	r31, r1
 f92:	20 81       	ld	r18, Z
 f94:	21 11       	cpse	r18, r1
 f96:	f3 cf       	rjmp	.-26     	; 0xf7e <usart_write_text+0xa>
 f98:	08 95       	ret

Disassembly of section .text.usart_read_char:

00001124 <usart_read_char>:
    1124:	80 91 c0 00 	lds	r24, 0x00C0	; 0x8000c0 <__TEXT_REGION_LENGTH__+0x7f80c0>
    1128:	87 ff       	sbrs	r24, 7
    112a:	fc cf       	rjmp	.-8      	; 0x1124 <usart_read_char>
    112c:	80 91 c6 00 	lds	r24, 0x00C6	; 0x8000c6 <__TEXT_REGION_LENGTH__+0x7f80c6>
    1130:	08 95       	ret

Disassembly of section .text.usart_data_available:

0000116a <usart_data_available>:
    116a:	80 91 c0 00 	lds	r24, 0x00C0	; 0x8000c0 <__TEXT_REGION_LENGTH__+0x7f80c0>
    116e:	88 1f       	adc	r24, r24
    1170:	88 27       	eor	r24, r24
    1172:	88 1f       	adc	r24, r24
    1174:	08 95       	ret

Disassembly of section .text.init_adc:

00000e8a <init_adc>:
 e8a:	ea e7       	ldi	r30, 0x7A	; 122
 e8c:	f0 e0       	ldi	r31, 0x00	; 0
 e8e:	80 81       	ld	r24, Z
 e90:	80 68       	ori	r24, 0x80	; 128
 e92:	80 83       	st	Z, r24
 e94:	80 81       	ld	r24, Z
 e96:	84 60       	ori	r24, 0x04	; 4
 e98:	80 83       	st	Z, r24
 e9a:	80 81       	ld	r24, Z
 e9c:	82 60       	ori	r24, 0x02	; 2
 e9e:	80 83       	st	Z, r24
 ea0:	80 81       	ld	r24, Z
 ea2:	81 60       	ori	r24, 0x01	; 1
 ea4:	80 83       	st	Z, r24
 ea6:	ec e7       	ldi	r30, 0x7C	; 124
 ea8:	f0 e0       	ldi	r31, 0x00	; 0
 eaa:	80 81       	ld	r24, Z
 eac:	8f 77       	andi	r24, 0x7F	; 127
 eae:	80 83       	st	Z, r24
 eb0:	80 81       	ld	r24, Z
 eb2:	80 64       	ori	r24, 0x40	; 64
 eb4:	80 83       	st	Z, r24
 eb6:	80 81       	ld	r24, Z
 eb8:	8f 7d       	andi	r24, 0xDF	; 223
 eba:	80 83       	st	Z, r24
 ebc:	08 95       	ret

Disassembly of section .text.adc_channel_read:

00000ef2 <adc_channel_read>:
 ef2:	90 91 7c 00 	lds	r25, 0x007C	; 0x80007c <__TEXT_REGION_LENGTH__+0x7f807c>
 ef6:	90 7f       	andi	r25, 0xF0	; 240
 ef8:	89 2b       	or	r24, r25
 efa:	80 93 7c 00 	sts	0x007C, r24	; 0x80007c <__TEXT_REGION_LENGTH__+0x7f807c>
 efe:	80 91 7a 00 	lds	r24, 0x007A	; 0x80007a <__TEXT_REGION_LENGTH__+0x7f807a>
 f02:	80 64       	ori	r24, 0x40	; 64
 f04:	80 93 7a 00 	sts	0x007A, r24	; 0x80007a <__TEXT_REGION_LENGTH__+0x7f807a>
 f08:	80 91 7a 00 	lds	r24, 0x007A	; 0x80007a <__TEXT_REGION_LENGTH__+0x7f807a>
 f0c:	86 fd       	sbrc	r24, 6
 f0e:	fc cf       	rjmp	.-8      	; 0xf08 <adc_channel_read+0x16>
 f10:	80 91 78 00 	lds	r24, 0x0078	; 0x800078 <__TEXT_REGION_LENGTH__+0x7f8078>
 f14:	20 91 79 00 	lds	r18, 0x0079	; 0x800079 <__TEXT_REGION_LENGTH__+0x7f8079>
 f18:	90 e0       	ldi	r25, 0x00	; 0
 f1a:	92 2b       	or	r25, r18
 f1c:	08 95       	ret

Disassembly of section .text.get_analog_value:

00000d52 <get_analog_value>:
 d52:	90 91 7c 00 	lds	r25, 0x007C	; 0x80007c <__TEXT_REGION_LENGTH__+0x7f807c>
 d56:	90 7f       	andi	r25, 0xF0	; 240
 d58:	89 2b       	or	r24, r25
 d5a:	80 93 7c 00 	sts	0x007C, r24	; 0x80007c <__TEXT_REGION_LENGTH__+0x7f807c>
 d5e:	80 91 7a 00 	lds	r24, 0x007A	; 0x80007a <__TEXT_REGION_LENGTH__+0x7f807a>
 d62:	80 64       	ori	r24, 0x40	; 64
 d64:	80 93 7a 00 	sts	0x007A, r24	; 0x80007a <__TEXT_REGION_LENGTH__+0x7f807a>
 d68:	80 91 7a 00 	lds	r24, 0x007A	; 0x80007a <__TEXT_REGION_LENGTH__+0x7f807a>
 d6c:	86 fd       	sbrc	r24, 6
 d6e:	fc cf       	rjmp	.-8      	; 0xd68 <get_analog_value+0x16>
 d70:	60 91 78 00 	lds	r22, 0x0078	; 0x800078 <__TEXT_REGION_LENGTH__+0x7f8078>
 d74:	80 91 79 00 	lds	r24, 0x0079	; 0x800079 <__TEXT_REGION_LENGTH__+0x7f8079>
 d78:	70 e0       	ldi	r23, 0x00	; 0
 d7a:	78 2b       	or	r23, r24
 d7c:	80 e0       	ldi	r24, 0x00	; 0
 d7e:	90 e0       	ldi	r25, 0x00	; 0
 d80:	0e 94 c3 04 	call	0x986	; 0x986 <__floatunsisf>
 d84:	20 e0       	ldi	r18, 0x00	; 0
 d86:	30 e0       	ldi	r19, 0x00	; 0
 d88:	40 ea       	ldi	r20, 0xA0	; 160
 d8a:	5b e3       	ldi	r21, 0x3B	; 59
 d8c:	0e 94 c6 08 	call	0x118c	; 0x118c <__mulsf3>
 d90:	08 95       	ret

Disassembly of section .text.EEPROM_write:

00001106 <EEPROM_write>:
    1106:	f9 99       	sbic	0x1f, 1	; 31
    1108:	fe cf       	rjmp	.-4      	; 0x1106 <EEPROM_write>
    110a:	92 bd       	out	0x22, r25	; 34
    110c:	81 bd       	out	0x21, r24	; 33
    110e:	60 bd       	out	0x20, r22	; 32
    1110:	fa 9a       	sbi	0x1f, 2	; 31
    1112:	f9 9a       	sbi	0x1f, 1	; 31
    1114:	08 95       	ret

Disassembly of section .text.EEPROM_read:

00001132 <EEPROM_read>:
    1132:	f9 99       	sbic	0x1f, 1	; 31
    1134:	fe cf       	rjmp	.-4      	; 0x1132 <EEPROM_read>
    1136:	92 bd       	out	0x22, r25	; 34
    1138:	81 bd       	out	0x21, r24	; 33
    113a:	f8 9a       	sbi	0x1f, 0	; 31
    113c:	80 b5       	in	r24, 0x20	; 32
    113e:	08 95       	ret

Disassembly of section .text.dio_channel_config:

000000d8 <dio_channel_config>:
  d8:	98 2f       	mov	r25, r24
  da:	97 70       	andi	r25, 0x07	; 7
  dc:	86 95       	lsr	r24
  de:	86 95       	lsr	r24
  e0:	86 95       	lsr	r24
  e2:	81 30       	cpi	r24, 0x01	; 1
  e4:	31 f1       	breq	.+76     	; 0x132 <dio_channel_config+0x5a>
  e6:	60 f0       	brcs	.+24     	; 0x100 <dio_channel_config+0x28>
  e8:	82 30       	cpi	r24, 0x02	; 2
  ea:	49 f4       	brne	.+18     	; 0xfe <dio_channel_config+0x26>
  ec:	61 30       	cpi	r22, 0x01	; 1
  ee:	09 f4       	brne	.+2      	; 0xf2 <dio_channel_config+0x1a>
  f0:	81 c0       	rjmp	.+258    	; 0x1f4 <dio_channel_config+0x11c>
  f2:	66 23       	and	r22, r22
  f4:	b9 f1       	breq	.+110    	; 0x164 <dio_channel_config+0x8c>
  f6:	62 30       	cpi	r22, 0x02	; 2
  f8:	09 f4       	brne	.+2      	; 0xfc <dio_channel_config+0x24>
  fa:	5e c0       	rjmp	.+188    	; 0x1b8 <dio_channel_config+0xe0>
  fc:	08 95       	ret
  fe:	08 95       	ret
 100:	61 30       	cpi	r22, 0x01	; 1
 102:	09 f4       	brne	.+2      	; 0x106 <dio_channel_config+0x2e>
 104:	6b c0       	rjmp	.+214    	; 0x1dc <dio_channel_config+0x104>
 106:	66 23       	and	r22, r22
 108:	d9 f1       	breq	.+118    	; 0x180 <dio_channel_config+0xa8>
 10a:	62 30       	cpi	r22, 0x02	; 2
 10c:	b9 f7       	brne	.-18     	; 0xfc <dio_channel_config+0x24>
 10e:	44 b1       	in	r20, 0x04	; 4
 110:	21 e0       	ldi	r18, 0x01	; 1
 112:	30 e0       	ldi	r19, 0x00	; 0
 114:	b9 01       	movw	r22, r18
 116:	02 c0       	rjmp	.+4      	; 0x11c <dio_channel_config+0x44>
 118:	66 0f       	add	r22, r22
 11a:	77 1f       	adc	r23, r23
 11c:	9a 95       	dec	r25
 11e:	e2 f7       	brpl	.-8      	; 0x118 <dio_channel_config+0x40>
 120:	cb 01       	movw	r24, r22
 122:	96 2f       	mov	r25, r22
 124:	90 95       	com	r25
 126:	94 23       	and	r25, r20
 128:	94 b9       	out	0x04, r25	; 4
 12a:	95 b1       	in	r25, 0x05	; 5
 12c:	89 2b       	or	r24, r25
 12e:	85 b9       	out	0x05, r24	; 5
 130:	08 95       	ret
 132:	61 30       	cpi	r22, 0x01	; 1
 134:	09 f4       	brne	.+2      	; 0x138 <dio_channel_config+0x60>
 136:	6a c0       	rjmp	.+212    	; 0x20c <dio_channel_config+0x134>
 138:	66 23       	and	r22, r22
 13a:	81 f1       	breq	.+96     	; 0x19c <dio_channel_config+0xc4>
 13c:	62 30       	cpi	r22, 0x02	; 2
 13e:	f1 f6       	brne	.-68     	; 0xfc <dio_channel_config+0x24>
 140:	47 b1       	in	r20, 0x07	; 7
 142:	21 e0       	ldi	r18, 0x01	; 1
 144:	30 e0       	ldi	r19, 0x00	; 0
 146:	b9 01       	movw	r22, r18
 148:	02 c0       	rjmp	.+4      	; 0x14e <dio_channel_config+0x76>
 14a:	66 0f       	add	r22, r22
 14c:	77 1f       	adc	r23, r23
 14e:	9a 95       	dec	r25
 150:	e2 f7       	brpl	.-8      	; 0x14a <dio_channel_config+0x72>
 152:	cb 01       	movw	r24, r22
 154:	96 2f       	mov	r25, r22
 156:	90 95       	com	r25
 158:	94 23       	and	r25, r20
 15a:	97 b9       	out	0x07, r25	; 7
 15c:	98 b1       	in	r25, 0x08	; 8
 15e:	89 2b       	or	r24, r25
 160:	88 b9       	out	0x08, r24	; 8
 162:	08 95       	ret
 164:	4a b1       	in	r20, 0x0a	; 10
 166:	21 e0       	ldi	r18, 0x01	; 1
 168:	30 e0       	ldi	r19, 0x00	; 0
 16a:	b9 01       	movw	r22, r18
 16c:	02 c0       	rjmp	.+4      	; 0x172 <dio_channel_config+0x9a>
 16e:	66 0f       	add	r22, r22
 170:	77 1f       	adc	r23, r23
 172:	9a 95       	dec	r25
 174:	e2 f7       	brpl	.-8      	; 0x16e <dio_channel_config+0x96>
 176:	cb 01       	movw	r24, r22
 178:	80 95       	com	r24
 17a:	84 23       	and	r24, r20
 17c:	8a b9       	out	0x0a, r24	; 10
 17e:	08 95       	ret
 180:	44 b1       	in	r20, 0x04	; 4
 182:	21 e0       	ldi	r18, 0x01	; 1
 184:	30 e0       	ldi	r19, 0x00	; 0
 186:	b9 01       	movw	r22, r18
 188:	02 c0       	rjmp	.+4      	; 0x18e <dio_channel_config+0xb6>
 18a:	66 0f       	add	r22, r22
 18c:	77 1f       	adc	r23, r23
 18e:	9a 95       	dec	r25
 190:	e2 f7       	brpl	.-8      	; 0x18a <dio_channel_config+0xb2>
 192:	cb 01       	movw	r24, r22
 194:	80 95       	com	r24
 196:	84 23       	and	r24, r20
 198:	84 b9       	out	0x04, r24	; 4
 19a:	08 95       	ret
 19c:	47 b1       	in	r20, 0x07	; 7
 19e:	21 e0       	ldi	r18, 0x01	; 1
 1a0:	30 e0       	ldi	r19, 0x00	; 0
 1a2:	b9 01       	movw	r22, r18
 1a4:	02 c0       	rjmp	.+4      	; 0x1aa <dio_channel_config+0xd2>
 1a6:	66 0f       	add	r22, r22
 1a8:	77 1f       	adc	r23, r23
 1aa:	9a 95       	dec	r25
 1ac:	e2 f7       	brpl	.-8      	; 0x1a6 <dio_channel_config+0xce>
 1ae:	cb 01       	movw	r24, r22
 1b0:	80 95       	com	r24
 1b2:	84 23       	and	r24, r20
 1b4:	87 b9       	out	0x07, r24	; 7
 1b6:	08 95       	ret
 1b8:	4a b1       	in	r20, 0x0a	; 10
 1ba:	21 e0       	ldi	r18, 0x01	; 1
 1bc:	30 e0       	ldi	r19, 0x00	; 0
 1be:	b9 01       	movw	r22, r18
 1c0:	02 c0       	rjmp	.+4      	; 0x1c6 <dio_channel_config+0xee>
 1c2:	66 0f       	add	r22, r22
 1c4:	77 1f       	adc	r23, r23
 1c6:	9a 95       	dec	r25
 1c8:	e2 f7       	brpl	.-8      	; 0x1c2 <dio_channel_config+0xea>
 1ca:	cb 01       	movw	r24, r22
 1cc:	96 2f       	mov	r25, r22
 1ce:	90 95       	com	r25
 1d0:	94 23       	and	r25, r20
 1d2:	9a b9       	out	0x0a, r25	; 10
 1d4:	9b b1       	in	r25, 0x0b	; 11
 1d6:	89 2b       	or	r24, r25
 1d8:	8b b9       	out	0x0b, r24	; 11
 1da:	08 95       	ret
 1dc:	44 b1       	in	r20, 0x04	; 4
 1de:	21 e0       	ldi	r18, 0x01	; 1
 1e0:	30 e0       	ldi	r19, 0x00	; 0
 1e2:	b9 01       	movw	r22, r18
 1e4:	02 c0       	rjmp	.+4      	; 0x1ea <dio_channel_config+0x112>
 1e6:	66 0f       	add	r22, r22
 1e8:	77 1f       	adc	r23, r23
 1ea:	9a 95       	dec	r25
 1ec:	e2 f7       	brpl	.-8      	; 0x1e6 <dio_channel_config+0x10e>
 1ee:	cb 01       	movw	r24, r22
 1f0:	84 2b       	or	r24, r20
 1f2:	d2 cf       	rjmp	.-92     	; 0x198 <dio_channel_config+0xc0>
 1f4:	4a b1       	in	r20, 0x0a	; 10
 1f6:	21 e0       	ldi	r18, 0x01	; 1
 1f8:	30 e0       	ldi	r19, 0x00	; 0
 1fa:	b9 01       	movw	r22, r18
 1fc:	02 c0       	rjmp	.+4      	; 0x202 <dio_channel_config+0x12a>
 1fe:	66 0f       	add	r22, r22
 200:	77 1f       	adc	r23, r23
 202:	9a 95       	dec	r25
 204:	e2 f7       	brpl	.-8      	; 0x1fe <dio_channel_config+0x126>
 206:	cb 01       	movw	r24, r22
 208:	84 2b       	or	r24, r20
 20a:	b8 cf       	rjmp	.-144    	; 0x17c <dio_channel_config+0xa4>
 20c:	47 b1       	in	r20, 0x07	; 7
 20e:	21 e0       	ldi	r18, 0x01	; 1
 210:	30 e0       	ldi	r19, 0x00	; 0
 212:	b9 01       	movw	r22, r18
 214:	02 c0       	rjmp	.+4      	; 0x21a <dio_channel_config+0x142>
 216:	66 0f       	add	r22, r22
 218:	77 1f       	adc	r23, r23
 21a:	9a 95       	dec	r25
 21c:	e2 f7       	brpl	.-8      	; 0x216 <dio_channel_config+0x13e>
 21e:	cb 01       	movw	r24, r22
 220:	84 2b       	or	r24, r20
 222:	c8 cf       	rjmp	.-112    	; 0x1b4 <dio_channel_config+0xdc>

Disassembly of section .text.dio_channel_set:

00000224 <dio_channel_set>:
 224:	98 2f       	mov	r25, r24
 226:	97 70       	andi	r25, 0x07	; 7
 228:	86 95       	lsr	r24
 22a:	86 95       	lsr	r24
 22c:	86 95       	lsr	r24
 22e:	81 30       	cpi	r24, 0x01	; 1
 230:	01 f1       	breq	.+64     	; 0x272 <dio_channel_set+0x4e>
 232:	60 f0       	brcs	.+24     	; 0x24c <dio_channel_set+0x28>
 234:	82 30       	cpi	r24, 0x02	; 2
 236:	49 f4       	brne	.+18     	; 0x24a <dio_channel_set+0x26>
 238:	61 30       	cpi	r22, 0x01	; 1
 23a:	09 f4       	brne	.+2      	; 0x23e <dio_channel_set+0x1a>
 23c:	70 c0       	rjmp	.+224    	; 0x31e <dio_channel_set+0xfa>
 23e:	66 23       	and	r22, r22
 240:	59 f1       	breq	.+86     	; 0x298 <dio_channel_set+0x74>
 242:	62 30       	cpi	r22, 0x02	; 2
 244:	09 f4       	brne	.+2      	; 0x248 <dio_channel_set+0x24>
 246:	52 c0       	rjmp	.+164    	; 0x2ec <dio_channel_set+0xc8>
 248:	08 95       	ret
 24a:	08 95       	ret
 24c:	61 30       	cpi	r22, 0x01	; 1
 24e:	09 f4       	brne	.+2      	; 0x252 <dio_channel_set+0x2e>
 250:	5a c0       	rjmp	.+180    	; 0x306 <dio_channel_set+0xe2>
 252:	66 23       	and	r22, r22
 254:	79 f1       	breq	.+94     	; 0x2b4 <dio_channel_set+0x90>
 256:	62 30       	cpi	r22, 0x02	; 2
 258:	b9 f7       	brne	.-18     	; 0x248 <dio_channel_set+0x24>
 25a:	45 b1       	in	r20, 0x05	; 5
 25c:	21 e0       	ldi	r18, 0x01	; 1
 25e:	30 e0       	ldi	r19, 0x00	; 0
 260:	b9 01       	movw	r22, r18
 262:	02 c0       	rjmp	.+4      	; 0x268 <dio_channel_set+0x44>
 264:	66 0f       	add	r22, r22
 266:	77 1f       	adc	r23, r23
 268:	9a 95       	dec	r25
 26a:	e2 f7       	brpl	.-8      	; 0x264 <dio_channel_set+0x40>
 26c:	cb 01       	movw	r24, r22
 26e:	84 27       	eor	r24, r20
 270:	2d c0       	rjmp	.+90     	; 0x2cc <dio_channel_set+0xa8>
 272:	61 30       	cpi	r22, 0x01	; 1
 274:	09 f4       	brne	.+2      	; 0x278 <dio_channel_set+0x54>
 276:	60 c0       	rjmp	.+192    	; 0x338 <dio_channel_set+0x114>
 278:	66 23       	and	r22, r22
 27a:	51 f1       	breq	.+84     	; 0x2d0 <dio_channel_set+0xac>
 27c:	62 30       	cpi	r22, 0x02	; 2
 27e:	21 f7       	brne	.-56     	; 0x248 <dio_channel_set+0x24>
 280:	48 b1       	in	r20, 0x08	; 8
 282:	21 e0       	ldi	r18, 0x01	; 1
 284:	30 e0       	ldi	r19, 0x00	; 0
 286:	b9 01       	movw	r22, r18
 288:	02 c0       	rjmp	.+4      	; 0x28e <dio_channel_set+0x6a>
 28a:	66 0f       	add	r22, r22
 28c:	77 1f       	adc	r23, r23
 28e:	9a 95       	dec	r25
 290:	e2 f7       	brpl	.-8      	; 0x28a <dio_channel_set+0x66>
 292:	cb 01       	movw	r24, r22
 294:	84 27       	eor	r24, r20
 296:	28 c0       	rjmp	.+80     	; 0x2e8 <dio_channel_set+0xc4>
 298:	4b b1       	in	r20, 0x0b	; 11
 29a:	21 e0       	ldi	r18, 0x01	; 1
 29c:	30 e0       	ldi	r19, 0x00	; 0
 29e:	b9 01       	movw	r22, r18
 2a0:	02 c0       	rjmp	.+4      	; 0x2a6 <dio_channel_set+0x82>
 2a2:	66 0f       	add	r22, r22
 2a4:	77 1f       	adc	r23, r23
 2a6:	9a 95       	dec	r25
 2a8:	e2 f7       	brpl	.-8      	; 0x2a2 <dio_channel_set+0x7e>
 2aa:	cb 01       	movw	r24, r22
 2ac:	80 95       	com	r24
 2ae:	84 23       	and	r24, r20
 2b0:	8b b9       	out	0x0b, r24	; 11
 2b2:	08 95       	ret
 2b4:	45 b1       	in	r20, 0x05	; 5
 2b6:	21 e0       	ldi	r18, 0x01	; 1
 2b8:	30 e0       	ldi	r19, 0x00	; 0
 2ba:	b9 01       	movw	r22, r18
 2bc:	02 c0       	rjmp	.+4      	; 0x2c2 <dio_channel_set+0x9e>
 2be:	66 0f       	add	r22, r22
 2c0:	77 1f       	adc	r23, r23
 2c2:	9a 95       	dec	r25
 2c4:	e2 f7       	brpl	.-8      	; 0x2be <dio_channel_set+0x9a>
 2c6:	cb 01       	movw	r24, r22
 2c8:	80 95       	com	r24
 2ca:	84 23       	and	r24, r20
 2cc:	85 b9       	out	0x05, r24	; 5
 2ce:	08 95       	ret
 2d0:	48 b1       	in	r20, 0x08	; 8
 2d2:	21 e0       	ldi	r18, 0x01	; 1
 2d4:	30 e0       	ldi	r19, 0x00	; 0
 2d6:	b9 01       	movw	r22, r18
 2d8:	02 c0       	rjmp	.+4      	; 0x2de <dio_channel_set+0xba>
 2da:	66 0f       	add	r22, r22
 2dc:	77 1f       	adc	r23, r23
 2de:	9a 95       	dec	r25
 2e0:	e2 f7       	brpl	.-8      	; 0x2da <dio_channel_set+0xb6>
 2e2:	cb 01       	movw	r24, r22
 2e4:	80 95       	com	r24
 2e6:	84 23       	and	r24, r20
 2e8:	88 b9       	out	0x08, r24	; 8
 2ea:	08 95       	ret
 2ec:	4b b1       	in	r20, 0x0b	; 11
 2ee:	21 e0       	ldi	r18, 0x01	; 1
 2f0:	30 e0       	ldi	r19, 0x00	; 0
 2f2:	b9 01       	movw	r22, r18
 2f4:	02 c0       	rjmp	.+4      	; 0x2fa <dio_channel_set+0xd6>
 2f6:	66 0f       	add	r22, r22
 2f8:	77 1f       	adc	r23, r23
 2fa:	9a 95       	dec	r25
 2fc:	e2 f7       	brpl	.-8      	; 0x2f6 <dio_channel_set+0xd2>
 2fe:	cb 01       	movw	r24, r22
 300:	84 27       	eor	r24, r20
 302:	8b b9       	out	0x0b, r24	; 11
 304:	d6 cf       	rjmp	.-84     	; 0x2b2 <dio_channel_set+0x8e>
 306:	45 b1       	in	r20, 0x05	; 5
 308:	21 e0       	ldi	r18, 0x01	; 1
 30a:	30 e0       	ldi	r19, 0x00	; 0
 30c:	b9 01       	movw	r22, r18
 30e:	02 c0       	rjmp	.+4      	; 0x314 <dio_channel_set+0xf0>
 310:	66 0f       	add	r22, r22
 312:	77 1f       	adc	r23, r23
 314:	9a 95       	dec	r25
 316:	e2 f7       	brpl	.-8      	; 0x310 <dio_channel_set+0xec>
 318:	cb 01       	movw	r24, r22
 31a:	84 2b       	or	r24, r20
 31c:	d7 cf       	rjmp	.-82     	; 0x2cc <dio_channel_set+0xa8>
 31e:	4b b1       	in	r20, 0x0b	; 11
 320:	21 e0       	ldi	r18, 0x01	; 1
 322:	30 e0       	ldi	r19, 0x00	; 0
 324:	b9 01       	movw	r22, r18
 326:	02 c0       	rjmp	.+4      	; 0x32c <dio_channel_set+0x108>
 328:	66 0f       	add	r22, r22
 32a:	77 1f       	adc	r23, r23
 32c:	9a 95       	dec	r25
 32e:	e2 f7       	brpl	.-8      	; 0x328 <dio_channel_set+0x104>
 330:	cb 01       	movw	r24, r22
 332:	84 2b       	or	r24, r20
 334:	8b b9       	out	0x0b, r24	; 11
 336:	bd cf       	rjmp	.-134    	; 0x2b2 <dio_channel_set+0x8e>
 338:	48 b1       	in	r20, 0x08	; 8
 33a:	21 e0       	ldi	r18, 0x01	; 1
 33c:	30 e0       	ldi	r19, 0x00	; 0
 33e:	b9 01       	movw	r22, r18
 340:	02 c0       	rjmp	.+4      	; 0x346 <dio_channel_set+0x122>
 342:	66 0f       	add	r22, r22
 344:	77 1f       	adc	r23, r23
 346:	9a 95       	dec	r25
 348:	e2 f7       	brpl	.-8      	; 0x342 <dio_channel_set+0x11e>
 34a:	cb 01       	movw	r24, r22
 34c:	84 2b       	or	r24, r20
 34e:	cc cf       	rjmp	.-104    	; 0x2e8 <dio_channel_set+0xc4>

Disassembly of section .text.dio_channel_read:

00000c86 <dio_channel_read>:
 c86:	48 2f       	mov	r20, r24
 c88:	47 70       	andi	r20, 0x07	; 7
 c8a:	86 95       	lsr	r24
 c8c:	86 95       	lsr	r24
 c8e:	86 95       	lsr	r24
 c90:	81 30       	cpi	r24, 0x01	; 1
 c92:	c9 f0       	breq	.+50     	; 0xcc6 <dio_channel_read+0x40>
 c94:	b0 f0       	brcs	.+44     	; 0xcc2 <dio_channel_read+0x3c>
 c96:	82 30       	cpi	r24, 0x02	; 2
 c98:	91 f4       	brne	.+36     	; 0xcbe <dio_channel_read+0x38>
 c9a:	29 b1       	in	r18, 0x09	; 9
 c9c:	81 e0       	ldi	r24, 0x01	; 1
 c9e:	90 e0       	ldi	r25, 0x00	; 0
 ca0:	04 2e       	mov	r0, r20
 ca2:	02 c0       	rjmp	.+4      	; 0xca8 <dio_channel_read+0x22>
 ca4:	88 0f       	add	r24, r24
 ca6:	99 1f       	adc	r25, r25
 ca8:	0a 94       	dec	r0
 caa:	e2 f7       	brpl	.-8      	; 0xca4 <dio_channel_read+0x1e>
 cac:	30 e0       	ldi	r19, 0x00	; 0
 cae:	82 23       	and	r24, r18
 cb0:	93 23       	and	r25, r19
 cb2:	02 c0       	rjmp	.+4      	; 0xcb8 <dio_channel_read+0x32>
 cb4:	95 95       	asr	r25
 cb6:	87 95       	ror	r24
 cb8:	4a 95       	dec	r20
 cba:	e2 f7       	brpl	.-8      	; 0xcb4 <dio_channel_read+0x2e>
 cbc:	08 95       	ret
 cbe:	80 e0       	ldi	r24, 0x00	; 0
 cc0:	08 95       	ret
 cc2:	23 b1       	in	r18, 0x03	; 3
 cc4:	eb cf       	rjmp	.-42     	; 0xc9c <dio_channel_read+0x16>
 cc6:	26 b1       	in	r18, 0x06	; 6
 cc8:	e9 cf       	rjmp	.-46     	; 0xc9c <dio_channel_read+0x16>

Disassembly of section .text.dio_port_config:

0000109a <dio_port_config>:
    109a:	81 30       	cpi	r24, 0x01	; 1
    109c:	41 f0       	breq	.+16     	; 0x10ae <dio_port_config+0x14>
    109e:	28 f0       	brcs	.+10     	; 0x10aa <dio_port_config+0x10>
    10a0:	82 30       	cpi	r24, 0x02	; 2
    10a2:	11 f4       	brne	.+4      	; 0x10a8 <dio_port_config+0xe>
    10a4:	6a b9       	out	0x0a, r22	; 10
    10a6:	08 95       	ret
    10a8:	08 95       	ret
    10aa:	64 b9       	out	0x04, r22	; 4
    10ac:	08 95       	ret
    10ae:	67 b9       	out	0x07, r22	; 7
    10b0:	08 95       	ret

Disassembly of section .text.dio_port_set:

000010b2 <dio_port_set>:
    10b2:	81 30       	cpi	r24, 0x01	; 1
    10b4:	41 f0       	breq	.+16     	; 0x10c6 <dio_port_set+0x14>
    10b6:	28 f0       	brcs	.+10     	; 0x10c2 <dio_port_set+0x10>
    10b8:	82 30       	cpi	r24, 0x02	; 2
    10ba:	11 f4       	brne	.+4      	; 0x10c0 <dio_port_set+0xe>
    10bc:	6b b9       	out	0x0b, r22	; 11
    10be:	08 95       	ret
    10c0:	08 95       	ret
    10c2:	65 b9       	out	0x05, r22	; 5
    10c4:	08 95       	ret
    10c6:	68 b9       	out	0x08, r22	; 8
    10c8:	08 95       	ret

Disassembly of section .text.display_digit_private:

00000b9e <display_digit_private>:
 b9e:	cf 93       	push	r28
 ba0:	c8 2f       	mov	r28, r24
 ba2:	68 2f       	mov	r22, r24
 ba4:	61 70       	andi	r22, 0x01	; 1
 ba6:	80 e1       	ldi	r24, 0x10	; 16
 ba8:	0e 94 12 01 	call	0x224	; 0x224 <dio_channel_set>
 bac:	c1 fb       	bst	r28, 1
 bae:	66 27       	eor	r22, r22
 bb0:	60 f9       	bld	r22, 0
 bb2:	81 e1       	ldi	r24, 0x11	; 17
 bb4:	0e 94 12 01 	call	0x224	; 0x224 <dio_channel_set>
 bb8:	c2 fb       	bst	r28, 2
 bba:	66 27       	eor	r22, r22
 bbc:	60 f9       	bld	r22, 0
 bbe:	82 e1       	ldi	r24, 0x12	; 18
 bc0:	0e 94 12 01 	call	0x224	; 0x224 <dio_channel_set>
 bc4:	c3 fb       	bst	r28, 3
 bc6:	66 27       	eor	r22, r22
 bc8:	60 f9       	bld	r22, 0
 bca:	83 e1       	ldi	r24, 0x13	; 19
 bcc:	0e 94 12 01 	call	0x224	; 0x224 <dio_channel_set>
 bd0:	c4 fb       	bst	r28, 4
 bd2:	66 27       	eor	r22, r22
 bd4:	60 f9       	bld	r22, 0
 bd6:	84 e1       	ldi	r24, 0x14	; 20
 bd8:	0e 94 12 01 	call	0x224	; 0x224 <dio_channel_set>
 bdc:	c5 fb       	bst	r28, 5
 bde:	66 27       	eor	r22, r22
 be0:	60 f9       	bld	r22, 0
 be2:	85 e1       	ldi	r24, 0x15	; 21
 be4:	0e 94 12 01 	call	0x224	; 0x224 <dio_channel_set>
 be8:	c6 fb       	bst	r28, 6
 bea:	66 27       	eor	r22, r22
 bec:	60 f9       	bld	r22, 0
 bee:	86 e1       	ldi	r24, 0x16	; 22
 bf0:	cf 91       	pop	r28
 bf2:	0c 94 12 01 	jmp	0x224	; 0x224 <dio_channel_set>

Disassembly of section .text.init_seven_segment:

00000dd2 <init_seven_segment>:
 dd2:	61 e0       	ldi	r22, 0x01	; 1
 dd4:	80 e1       	ldi	r24, 0x10	; 16
 dd6:	0e 94 6c 00 	call	0xd8	; 0xd8 <__data_load_end>
 dda:	61 e0       	ldi	r22, 0x01	; 1
 ddc:	81 e1       	ldi	r24, 0x11	; 17
 dde:	0e 94 6c 00 	call	0xd8	; 0xd8 <__data_load_end>
 de2:	61 e0       	ldi	r22, 0x01	; 1
 de4:	82 e1       	ldi	r24, 0x12	; 18
 de6:	0e 94 6c 00 	call	0xd8	; 0xd8 <__data_load_end>
 dea:	61 e0       	ldi	r22, 0x01	; 1
 dec:	83 e1       	ldi	r24, 0x13	; 19
 dee:	0e 94 6c 00 	call	0xd8	; 0xd8 <__data_load_end>
 df2:	61 e0       	ldi	r22, 0x01	; 1
 df4:	84 e1       	ldi	r24, 0x14	; 20
 df6:	0e 94 6c 00 	call	0xd8	; 0xd8 <__data_load_end>
 dfa:	61 e0       	ldi	r22, 0x01	; 1
 dfc:	85 e1       	ldi	r24, 0x15	; 21
 dfe:	0e 94 6c 00 	call	0xd8	; 0xd8 <__data_load_end>
 e02:	61 e0       	ldi	r22, 0x01	; 1
 e04:	86 e1       	ldi	r24, 0x16	; 22
 e06:	0e 94 6c 00 	call	0xd8	; 0xd8 <__data_load_end>
 e0a:	80 e0       	ldi	r24, 0x00	; 0
 e0c:	0c 94 cf 05 	jmp	0xb9e	; 0xb9e <display_digit_private>

Disassembly of section .text.display_digit:

000010ca <display_digit>:
    10ca:	8a 30       	cpi	r24, 0x0A	; 10
    10cc:	08 f0       	brcs	.+2      	; 0x10d0 <display_digit+0x6>
    10ce:	08 95       	ret
    10d0:	e8 2f       	mov	r30, r24
    10d2:	f0 e0       	ldi	r31, 0x00	; 0
    10d4:	e4 58       	subi	r30, 0x84	; 132
    10d6:	fe 4f       	sbci	r31, 0xFE	; 254
    10d8:	80 81       	ld	r24, Z
    10da:	0c 94 cf 05 	jmp	0xb9e	; 0xb9e <display_digit_private>

Disassembly of section .text.send_instruction_4bit:

00000ae0 <send_instruction_4bit>:
 ae0:	cf 93       	push	r28
 ae2:	c8 2f       	mov	r28, r24
 ae4:	60 e0       	ldi	r22, 0x00	; 0
 ae6:	80 e0       	ldi	r24, 0x00	; 0
 ae8:	0e 94 12 01 	call	0x224	; 0x224 <dio_channel_set>
 aec:	6c 2f       	mov	r22, r28
 aee:	61 70       	andi	r22, 0x01	; 1
 af0:	82 e0       	ldi	r24, 0x02	; 2
 af2:	0e 94 12 01 	call	0x224	; 0x224 <dio_channel_set>
 af6:	c1 fb       	bst	r28, 1
 af8:	66 27       	eor	r22, r22
 afa:	60 f9       	bld	r22, 0
 afc:	83 e0       	ldi	r24, 0x03	; 3
 afe:	0e 94 12 01 	call	0x224	; 0x224 <dio_channel_set>
 b02:	c2 fb       	bst	r28, 2
 b04:	66 27       	eor	r22, r22
 b06:	60 f9       	bld	r22, 0
 b08:	84 e0       	ldi	r24, 0x04	; 4
 b0a:	0e 94 12 01 	call	0x224	; 0x224 <dio_channel_set>
 b0e:	c3 fb       	bst	r28, 3
 b10:	66 27       	eor	r22, r22
 b12:	60 f9       	bld	r22, 0
 b14:	85 e0       	ldi	r24, 0x05	; 5
 b16:	0e 94 12 01 	call	0x224	; 0x224 <dio_channel_set>
 b1a:	61 e0       	ldi	r22, 0x01	; 1
 b1c:	81 e0       	ldi	r24, 0x01	; 1
 b1e:	0e 94 12 01 	call	0x224	; 0x224 <dio_channel_set>
 b22:	82 e0       	ldi	r24, 0x02	; 2
 b24:	8a 95       	dec	r24
 b26:	f1 f7       	brne	.-4      	; 0xb24 <send_instruction_4bit+0x44>
 b28:	00 c0       	rjmp	.+0      	; 0xb2a <send_instruction_4bit+0x4a>
 b2a:	60 e0       	ldi	r22, 0x00	; 0
 b2c:	81 e0       	ldi	r24, 0x01	; 1
 b2e:	0e 94 12 01 	call	0x224	; 0x224 <dio_channel_set>
 b32:	8f e8       	ldi	r24, 0x8F	; 143
 b34:	91 e0       	ldi	r25, 0x01	; 1
 b36:	01 97       	sbiw	r24, 0x01	; 1
 b38:	f1 f7       	brne	.-4      	; 0xb36 <send_instruction_4bit+0x56>
 b3a:	00 c0       	rjmp	.+0      	; 0xb3c <send_instruction_4bit+0x5c>
 b3c:	00 00       	nop
 b3e:	cf 91       	pop	r28
 b40:	08 95       	ret

Disassembly of section .text.send_instruction_8bit:

000006d6 <send_instruction_8bit>:
 6d6:	cf 93       	push	r28
 6d8:	c8 2f       	mov	r28, r24
 6da:	60 e0       	ldi	r22, 0x00	; 0
 6dc:	80 e0       	ldi	r24, 0x00	; 0
 6de:	0e 94 12 01 	call	0x224	; 0x224 <dio_channel_set>
 6e2:	c4 fb       	bst	r28, 4
 6e4:	66 27       	eor	r22, r22
 6e6:	60 f9       	bld	r22, 0
 6e8:	82 e0       	ldi	r24, 0x02	; 2
 6ea:	0e 94 12 01 	call	0x224	; 0x224 <dio_channel_set>
 6ee:	c5 fb       	bst	r28, 5
 6f0:	66 27       	eor	r22, r22
 6f2:	60 f9       	bld	r22, 0
 6f4:	83 e0       	ldi	r24, 0x03	; 3
 6f6:	0e 94 12 01 	call	0x224	; 0x224 <dio_channel_set>
 6fa:	c6 fb       	bst	r28, 6
 6fc:	66 27       	eor	r22, r22
 6fe:	60 f9       	bld	r22, 0
 700:	84 e0       	ldi	r24, 0x04	; 4
 702:	0e 94 12 01 	call	0x224	; 0x224 <dio_channel_set>
 706:	6c 2f       	mov	r22, r28
 708:	66 1f       	adc	r22, r22
 70a:	66 27       	eor	r22, r22
 70c:	66 1f       	adc	r22, r22
 70e:	85 e0       	ldi	r24, 0x05	; 5
 710:	0e 94 12 01 	call	0x224	; 0x224 <dio_channel_set>
 714:	61 e0       	ldi	r22, 0x01	; 1
 716:	81 e0       	ldi	r24, 0x01	; 1
 718:	0e 94 12 01 	call	0x224	; 0x224 <dio_channel_set>
 71c:	82 e0       	ldi	r24, 0x02	; 2
 71e:	8a 95       	dec	r24
 720:	f1 f7       	brne	.-4      	; 0x71e <send_instruction_8bit+0x48>
 722:	00 c0       	rjmp	.+0      	; 0x724 <send_instruction_8bit+0x4e>
 724:	60 e0       	ldi	r22, 0x00	; 0
 726:	81 e0       	ldi	r24, 0x01	; 1
 728:	0e 94 12 01 	call	0x224	; 0x224 <dio_channel_set>
 72c:	8f e8       	ldi	r24, 0x8F	; 143
 72e:	91 e0       	ldi	r25, 0x01	; 1
 730:	01 97       	sbiw	r24, 0x01	; 1
 732:	f1 f7       	brne	.-4      	; 0x730 <send_instruction_8bit+0x5a>
 734:	00 c0       	rjmp	.+0      	; 0x736 <send_instruction_8bit+0x60>
 736:	00 00       	nop
 738:	6c 2f       	mov	r22, r28
 73a:	61 70       	andi	r22, 0x01	; 1
 73c:	82 e0       	ldi	r24, 0x02	; 2
 73e:	0e 94 12 01 	call	0x224	; 0x224 <dio_channel_set>
 742:	c1 fb       	bst	r28, 1
 744:	66 27       	eor	r22, r22
 746:	60 f9       	bld	r22, 0
 748:	83 e0       	ldi	r24, 0x03	; 3
 74a:	0e 94 12 01 	call	0x224	; 0x224 <dio_channel_set>
 74e:	c2 fb       	bst	r28, 2
 750:	66 27       	eor	r22, r22
 752:	60 f9       	bld	r22, 0
 754:	84 e0       	ldi	r24, 0x04	; 4
 756:	0e 94 12 01 	call	0x224	; 0x224 <dio_channel_set>
 75a:	c3 fb       	bst	r28, 3
 75c:	66 27       	eor	r22, r22
 75e:	60 f9       	bld	r22, 0
 760:	85 e0       	ldi	r24, 0x05	; 5
 762:	0e 94 12 01 	call	0x224	; 0x224 <dio_channel_set>
 766:	61 e0       	ldi	r22, 0x01	; 1
 768:	81 e0       	ldi	r24, 0x01	; 1
 76a:	0e 94 12 01 	call	0x224	; 0x224 <dio_channel_set>
 76e:	92 e0       	ldi	r25, 0x02	; 2
 770:	9a 95       	dec	r25
 772:	f1 f7       	brne	.-4      	; 0x770 <send_instruction_8bit+0x9a>
 774:	00 c0       	rjmp	.+0      	; 0x776 <send_instruction_8bit+0xa0>
 776:	60 e0       	ldi	r22, 0x00	; 0
 778:	81 e0       	ldi	r24, 0x01	; 1
 77a:	0e 94 12 01 	call	0x224	; 0x224 <dio_channel_set>
 77e:	8f e8       	ldi	r24, 0x8F	; 143
 780:	91 e0       	ldi	r25, 0x01	; 1
 782:	01 97       	sbiw	r24, 0x01	; 1
 784:	f1 f7       	brne	.-4      	; 0x782 <send_instruction_8bit+0xac>
 786:	00 c0       	rjmp	.+0      	; 0x788 <send_instruction_8bit+0xb2>
 788:	00 00       	nop
 78a:	cf 91       	pop	r28
 78c:	08 95       	ret

Disassembly of section .text.send_data_8bit:

0000078e <send_data_8bit>:
 78e:	cf 93       	push	r28
 790:	c8 2f       	mov	r28, r24
 792:	61 e0       	ldi	r22, 0x01	; 1
 794:	80 e0       	ldi	r24, 0x00	; 0
 796:	0e 94 12 01 	call	0x224	; 0x224 <dio_channel_set>
 79a:	c4 fb       	bst	r28, 4
 79c:	66 27       	eor	r22, r22
 79e:	60 f9       	bld	r22, 0
 7a0:	82 e0       	ldi	r24, 0x02	; 2
 7a2:	0e 94 12 01 	call	0x224	; 0x224 <dio_channel_set>
 7a6:	c5 fb       	bst	r28, 5
 7a8:	66 27       	eor	r22, r22
 7aa:	60 f9       	bld	r22, 0
 7ac:	83 e0       	ldi	r24, 0x03	; 3
 7ae:	0e 94 12 01 	call	0x224	; 0x224 <dio_channel_set>
 7b2:	c6 fb       	bst	r28, 6
 7b4:	66 27       	eor	r22, r22
 7b6:	60 f9       	bld	r22, 0
 7b8:	84 e0       	ldi	r24, 0x04	; 4
 7ba:	0e 94 12 01 	call	0x224	; 0x224 <dio_channel_set>
 7be:	6c 2f       	mov	r22, r28
 7c0:	66 1f       	adc	r22, r22
 7c2:	66 27       	eor	r22, r22
 7c4:	66 1f       	adc	r22, r22
 7c6:	85 e0       	ldi	r24, 0x05	; 5
 7c8:	0e 94 12 01 	call	0x224	; 0x224 <dio_channel_set>
 7cc:	61 e0       	ldi	r22, 0x01	; 1
 7ce:	81 e0       	ldi	r24, 0x01	; 1
 7d0:	0e 94 12 01 	call	0x224	; 0x224 <dio_channel_set>
 7d4:	82 e0       	ldi	r24, 0x02	; 2
 7d6:	8a 95       	dec	r24
 7d8:	f1 f7       	brne	.-4      	; 0x7d6 <send_data_8bit+0x48>
 7da:	00 c0       	rjmp	.+0      	; 0x7dc <send_data_8bit+0x4e>
 7dc:	60 e0       	ldi	r22, 0x00	; 0
 7de:	81 e0       	ldi	r24, 0x01	; 1
 7e0:	0e 94 12 01 	call	0x224	; 0x224 <dio_channel_set>
 7e4:	8f e8       	ldi	r24, 0x8F	; 143
 7e6:	91 e0       	ldi	r25, 0x01	; 1
 7e8:	01 97       	sbiw	r24, 0x01	; 1
 7ea:	f1 f7       	brne	.-4      	; 0x7e8 <send_data_8bit+0x5a>
 7ec:	00 c0       	rjmp	.+0      	; 0x7ee <send_data_8bit+0x60>
 7ee:	00 00       	nop
 7f0:	6c 2f       	mov	r22, r28
 7f2:	61 70       	andi	r22, 0x01	; 1
 7f4:	82 e0       	ldi	r24, 0x02	; 2
 7f6:	0e 94 12 01 	call	0x224	; 0x224 <dio_channel_set>
 7fa:	c1 fb       	bst	r28, 1
 7fc:	66 27       	eor	r22, r22
 7fe:	60 f9       	bld	r22, 0
 800:	83 e0       	ldi	r24, 0x03	; 3
 802:	0e 94 12 01 	call	0x224	; 0x224 <dio_channel_set>
 806:	c2 fb       	bst	r28, 2
 808:	66 27       	eor	r22, r22
 80a:	60 f9       	bld	r22, 0
 80c:	84 e0       	ldi	r24, 0x04	; 4
 80e:	0e 94 12 01 	call	0x224	; 0x224 <dio_channel_set>
 812:	c3 fb       	bst	r28, 3
 814:	66 27       	eor	r22, r22
 816:	60 f9       	bld	r22, 0
 818:	85 e0       	ldi	r24, 0x05	; 5
 81a:	0e 94 12 01 	call	0x224	; 0x224 <dio_channel_set>
 81e:	61 e0       	ldi	r22, 0x01	; 1
 820:	81 e0       	ldi	r24, 0x01	; 1
 822:	0e 94 12 01 	call	0x224	; 0x224 <dio_channel_set>
 826:	92 e0       	ldi	r25, 0x02	; 2
 828:	9a 95       	dec	r25
 82a:	f1 f7       	brne	.-4      	; 0x828 <__DATA_REGION_LENGTH__+0x28>
 82c:	00 c0       	rjmp	.+0      	; 0x82e <__DATA_REGION_LENGTH__+0x2e>
 82e:	60 e0       	ldi	r22, 0x00	; 0
 830:	81 e0       	ldi	r24, 0x01	; 1
 832:	0e 94 12 01 	call	0x224	; 0x224 <dio_channel_set>
 836:	8f e8       	ldi	r24, 0x8F	; 143
 838:	91 e0       	ldi	r25, 0x01	; 1
 83a:	01 97       	sbiw	r24, 0x01	; 1
 83c:	f1 f7       	brne	.-4      	; 0x83a <__DATA_REGION_LENGTH__+0x3a>
 83e:	00 c0       	rjmp	.+0      	; 0x840 <__DATA_REGION_LENGTH__+0x40>
 840:	00 00       	nop
 842:	cf 91       	pop	r28
 844:	08 95       	ret

Disassembly of section .text.init_lcd:

00000846 <init_lcd>:
 846:	61 e0       	ldi	r22, 0x01	; 1
 848:	80 e0       	ldi	r24, 0x00	; 0
 84a:	0e 94 6c 00 	call	0xd8	; 0xd8 <__data_load_end>
 84e:	61 e0       	ldi	r22, 0x01	; 1
 850:	81 e0       	ldi	r24, 0x01	; 1
 852:	0e 94 6c 00 	call	0xd8	; 0xd8 <__data_load_end>
 856:	61 e0       	ldi	r22, 0x01	; 1
 858:	82 e0       	ldi	r24, 0x02	; 2
 85a:	0e 94 6c 00 	call	0xd8	; 0xd8 <__data_load_end>
 85e:	61 e0       	ldi	r22, 0x01	; 1
 860:	83 e0       	ldi	r24, 0x03	; 3
 862:	0e 94 6c 00 	call	0xd8	; 0xd8 <__data_load_end>
 866:	61 e0       	ldi	r22, 0x01	; 1
 868:	84 e0       	ldi	r24, 0x04	; 4
 86a:	0e 94 6c 00 	call	0xd8	; 0xd8 <__data_load_end>
 86e:	61 e0       	ldi	r22, 0x01	; 1
 870:	85 e0       	ldi	r24, 0x05	; 5
 872:	0e 94 6c 00 	call	0xd8	; 0xd8 <__data_load_end>
 876:	60 e0       	ldi	r22, 0x00	; 0
 878:	81 e0       	ldi	r24, 0x01	; 1
 87a:	0e 94 12 01 	call	0x224	; 0x224 <dio_channel_set>
 87e:	2f ef       	ldi	r18, 0xFF	; 255
 880:	89 ef       	ldi	r24, 0xF9	; 249
 882:	90 e0       	ldi	r25, 0x00	; 0
 884:	21 50       	subi	r18, 0x01	; 1
 886:	80 40       	sbci	r24, 0x00	; 0
 888:	90 40       	sbci	r25, 0x00	; 0
 88a:	e1 f7       	brne	.-8      	; 0x884 <init_lcd+0x3e>
 88c:	00 c0       	rjmp	.+0      	; 0x88e <init_lcd+0x48>
 88e:	00 00       	nop
 890:	83 e0       	ldi	r24, 0x03	; 3
 892:	0e 94 70 05 	call	0xae0	; 0xae0 <send_instruction_4bit>
 896:	8f e1       	ldi	r24, 0x1F	; 31
 898:	9e e4       	ldi	r25, 0x4E	; 78
 89a:	01 97       	sbiw	r24, 0x01	; 1
 89c:	f1 f7       	brne	.-4      	; 0x89a <init_lcd+0x54>
 89e:	00 c0       	rjmp	.+0      	; 0x8a0 <init_lcd+0x5a>
 8a0:	00 00       	nop
 8a2:	83 e0       	ldi	r24, 0x03	; 3
 8a4:	0e 94 70 05 	call	0xae0	; 0xae0 <send_instruction_4bit>
 8a8:	8f e1       	ldi	r24, 0x1F	; 31
 8aa:	93 e0       	ldi	r25, 0x03	; 3
 8ac:	01 97       	sbiw	r24, 0x01	; 1
 8ae:	f1 f7       	brne	.-4      	; 0x8ac <init_lcd+0x66>
 8b0:	00 c0       	rjmp	.+0      	; 0x8b2 <init_lcd+0x6c>
 8b2:	00 00       	nop
 8b4:	83 e0       	ldi	r24, 0x03	; 3
 8b6:	0e 94 70 05 	call	0xae0	; 0xae0 <send_instruction_4bit>
 8ba:	82 e0       	ldi	r24, 0x02	; 2
 8bc:	0e 94 70 05 	call	0xae0	; 0xae0 <send_instruction_4bit>
 8c0:	88 e2       	ldi	r24, 0x28	; 40
 8c2:	0e 94 6b 03 	call	0x6d6	; 0x6d6 <send_instruction_8bit>
 8c6:	87 ec       	ldi	r24, 0xC7	; 199
 8c8:	90 e0       	ldi	r25, 0x00	; 0
 8ca:	01 97       	sbiw	r24, 0x01	; 1
 8cc:	f1 f7       	brne	.-4      	; 0x8ca <init_lcd+0x84>
 8ce:	00 c0       	rjmp	.+0      	; 0x8d0 <init_lcd+0x8a>
 8d0:	00 00       	nop
 8d2:	88 e0       	ldi	r24, 0x08	; 8
 8d4:	0e 94 6b 03 	call	0x6d6	; 0x6d6 <send_instruction_8bit>
 8d8:	81 e0       	ldi	r24, 0x01	; 1
 8da:	0e 94 6b 03 	call	0x6d6	; 0x6d6 <send_instruction_8bit>
 8de:	86 e0       	ldi	r24, 0x06	; 6
 8e0:	0e 94 6b 03 	call	0x6d6	; 0x6d6 <send_instruction_8bit>
 8e4:	8f e3       	ldi	r24, 0x3F	; 63
 8e6:	9c e9       	ldi	r25, 0x9C	; 156
 8e8:	01 97       	sbiw	r24, 0x01	; 1
 8ea:	f1 f7       	brne	.-4      	; 0x8e8 <init_lcd+0xa2>
 8ec:	00 c0       	rjmp	.+0      	; 0x8ee <init_lcd+0xa8>
 8ee:	00 00       	nop
 8f0:	8c e0       	ldi	r24, 0x0C	; 12
 8f2:	0c 94 6b 03 	jmp	0x6d6	; 0x6d6 <send_instruction_8bit>

Disassembly of section .text.lcd_write_text:

00000bf6 <lcd_write_text>:
 bf6:	0f 93       	push	r16
 bf8:	1f 93       	push	r17
 bfa:	cf 93       	push	r28
 bfc:	8c 01       	movw	r16, r24
 bfe:	84 2f       	mov	r24, r20
 c00:	90 e4       	ldi	r25, 0x40	; 64
 c02:	69 9f       	mul	r22, r25
 c04:	80 0d       	add	r24, r0
 c06:	11 24       	eor	r1, r1
 c08:	81 54       	subi	r24, 0x41	; 65
 c0a:	80 68       	ori	r24, 0x80	; 128
 c0c:	0e 94 6b 03 	call	0x6d6	; 0x6d6 <send_instruction_8bit>
 c10:	ef e8       	ldi	r30, 0x8F	; 143
 c12:	f1 e0       	ldi	r31, 0x01	; 1
 c14:	31 97       	sbiw	r30, 0x01	; 1
 c16:	f1 f7       	brne	.-4      	; 0xc14 <lcd_write_text+0x1e>
 c18:	00 c0       	rjmp	.+0      	; 0xc1a <lcd_write_text+0x24>
 c1a:	00 00       	nop
 c1c:	f8 01       	movw	r30, r16
 c1e:	80 81       	ld	r24, Z
 c20:	88 23       	and	r24, r24
 c22:	51 f0       	breq	.+20     	; 0xc38 <lcd_write_text+0x42>
 c24:	c0 e0       	ldi	r28, 0x00	; 0
 c26:	0e 94 c7 03 	call	0x78e	; 0x78e <send_data_8bit>
 c2a:	cf 5f       	subi	r28, 0xFF	; 255
 c2c:	f8 01       	movw	r30, r16
 c2e:	ec 0f       	add	r30, r28
 c30:	f1 1d       	adc	r31, r1
 c32:	80 81       	ld	r24, Z
 c34:	81 11       	cpse	r24, r1
 c36:	f7 cf       	rjmp	.-18     	; 0xc26 <lcd_write_text+0x30>
 c38:	cf 91       	pop	r28
 c3a:	1f 91       	pop	r17
 c3c:	0f 91       	pop	r16
 c3e:	08 95       	ret

Disassembly of section .text.lcd_write_char:

00000f4a <lcd_write_char>:
 f4a:	cf 93       	push	r28
 f4c:	c8 2f       	mov	r28, r24
 f4e:	84 2f       	mov	r24, r20
 f50:	90 e4       	ldi	r25, 0x40	; 64
 f52:	69 9f       	mul	r22, r25
 f54:	80 0d       	add	r24, r0
 f56:	11 24       	eor	r1, r1
 f58:	81 54       	subi	r24, 0x41	; 65
 f5a:	80 68       	ori	r24, 0x80	; 128
 f5c:	0e 94 6b 03 	call	0x6d6	; 0x6d6 <send_instruction_8bit>
 f60:	8f e8       	ldi	r24, 0x8F	; 143
 f62:	91 e0       	ldi	r25, 0x01	; 1
 f64:	01 97       	sbiw	r24, 0x01	; 1
 f66:	f1 f7       	brne	.-4      	; 0xf64 <lcd_write_char+0x1a>
 f68:	00 c0       	rjmp	.+0      	; 0xf6a <lcd_write_char+0x20>
 f6a:	00 00       	nop
 f6c:	8c 2f       	mov	r24, r28
 f6e:	cf 91       	pop	r28
 f70:	0c 94 c7 03 	jmp	0x78e	; 0x78e <send_data_8bit>

Disassembly of section .text.lcd_write_char_cp:

0000119e <lcd_write_char_cp>:
    119e:	0c 94 c7 03 	jmp	0x78e	; 0x78e <send_data_8bit>

Disassembly of section .text.lcd_write_text_cp:

00000f1e <lcd_write_text_cp>:
 f1e:	0f 93       	push	r16
 f20:	1f 93       	push	r17
 f22:	cf 93       	push	r28
 f24:	fc 01       	movw	r30, r24
 f26:	80 81       	ld	r24, Z
 f28:	88 23       	and	r24, r24
 f2a:	59 f0       	breq	.+22     	; 0xf42 <lcd_write_text_cp+0x24>
 f2c:	8f 01       	movw	r16, r30
 f2e:	c0 e0       	ldi	r28, 0x00	; 0
 f30:	0e 94 c7 03 	call	0x78e	; 0x78e <send_data_8bit>
 f34:	cf 5f       	subi	r28, 0xFF	; 255
 f36:	f8 01       	movw	r30, r16
 f38:	ec 0f       	add	r30, r28
 f3a:	f1 1d       	adc	r31, r1
 f3c:	80 81       	ld	r24, Z
 f3e:	81 11       	cpse	r24, r1
 f40:	f7 cf       	rjmp	.-18     	; 0xf30 <lcd_write_text_cp+0x12>
 f42:	cf 91       	pop	r28
 f44:	1f 91       	pop	r17
 f46:	0f 91       	pop	r16
 f48:	08 95       	ret

Disassembly of section .text.lcd_clear:

000010de <lcd_clear>:
    10de:	81 e0       	ldi	r24, 0x01	; 1
    10e0:	0e 94 6b 03 	call	0x6d6	; 0x6d6 <send_instruction_8bit>
    10e4:	8f e3       	ldi	r24, 0x3F	; 63
    10e6:	9f e1       	ldi	r25, 0x1F	; 31
    10e8:	01 97       	sbiw	r24, 0x01	; 1
    10ea:	f1 f7       	brne	.-4      	; 0x10e8 <lcd_clear+0xa>
    10ec:	00 c0       	rjmp	.+0      	; 0x10ee <lcd_clear+0x10>
    10ee:	00 00       	nop
    10f0:	08 95       	ret

Disassembly of section .text.output_scan_pattern:

00000ebe <output_scan_pattern>:
 ebe:	cf 93       	push	r28
 ec0:	c8 2f       	mov	r28, r24
 ec2:	68 2f       	mov	r22, r24
 ec4:	61 70       	andi	r22, 0x01	; 1
 ec6:	84 e1       	ldi	r24, 0x14	; 20
 ec8:	0e 94 12 01 	call	0x224	; 0x224 <dio_channel_set>
 ecc:	c1 fb       	bst	r28, 1
 ece:	66 27       	eor	r22, r22
 ed0:	60 f9       	bld	r22, 0
 ed2:	85 e1       	ldi	r24, 0x15	; 21
 ed4:	0e 94 12 01 	call	0x224	; 0x224 <dio_channel_set>
 ed8:	c2 fb       	bst	r28, 2
 eda:	66 27       	eor	r22, r22
 edc:	60 f9       	bld	r22, 0
 ede:	86 e1       	ldi	r24, 0x16	; 22
 ee0:	0e 94 12 01 	call	0x224	; 0x224 <dio_channel_set>
 ee4:	c3 fb       	bst	r28, 3
 ee6:	66 27       	eor	r22, r22
 ee8:	60 f9       	bld	r22, 0
 eea:	87 e1       	ldi	r24, 0x17	; 23
 eec:	cf 91       	pop	r28
 eee:	0c 94 12 01 	jmp	0x224	; 0x224 <dio_channel_set>

Disassembly of section .text.scan:

00000a76 <scan>:
 a76:	0f 93       	push	r16
 a78:	1f 93       	push	r17
 a7a:	cf 93       	push	r28
 a7c:	07 e8       	ldi	r16, 0x87	; 135
 a7e:	11 e0       	ldi	r17, 0x01	; 1
 a80:	8e e0       	ldi	r24, 0x0E	; 14
 a82:	c0 e0       	ldi	r28, 0x00	; 0
 a84:	0e 94 5f 07 	call	0xebe	; 0xebe <output_scan_pattern>
 a88:	80 e1       	ldi	r24, 0x10	; 16
 a8a:	0e 94 43 06 	call	0xc86	; 0xc86 <dio_channel_read>
 a8e:	81 11       	cpse	r24, r1
 a90:	06 c0       	rjmp	.+12     	; 0xa9e <scan+0x28>
 a92:	80 e0       	ldi	r24, 0x00	; 0
 a94:	8c 0f       	add	r24, r28
 a96:	cf 91       	pop	r28
 a98:	1f 91       	pop	r17
 a9a:	0f 91       	pop	r16
 a9c:	08 95       	ret
 a9e:	81 e1       	ldi	r24, 0x11	; 17
 aa0:	0e 94 43 06 	call	0xc86	; 0xc86 <dio_channel_read>
 aa4:	81 11       	cpse	r24, r1
 aa6:	02 c0       	rjmp	.+4      	; 0xaac <scan+0x36>
 aa8:	84 e0       	ldi	r24, 0x04	; 4
 aaa:	f4 cf       	rjmp	.-24     	; 0xa94 <scan+0x1e>
 aac:	82 e1       	ldi	r24, 0x12	; 18
 aae:	0e 94 43 06 	call	0xc86	; 0xc86 <dio_channel_read>
 ab2:	81 11       	cpse	r24, r1
 ab4:	02 c0       	rjmp	.+4      	; 0xaba <scan+0x44>
 ab6:	88 e0       	ldi	r24, 0x08	; 8
 ab8:	ed cf       	rjmp	.-38     	; 0xa94 <scan+0x1e>
 aba:	83 e1       	ldi	r24, 0x13	; 19
 abc:	0e 94 43 06 	call	0xc86	; 0xc86 <dio_channel_read>
 ac0:	81 11       	cpse	r24, r1
 ac2:	02 c0       	rjmp	.+4      	; 0xac8 <scan+0x52>
 ac4:	8c e0       	ldi	r24, 0x0C	; 12
 ac6:	e6 cf       	rjmp	.-52     	; 0xa94 <scan+0x1e>
 ac8:	cf 5f       	subi	r28, 0xFF	; 255
 aca:	c4 30       	cpi	r28, 0x04	; 4
 acc:	21 f0       	breq	.+8      	; 0xad6 <scan+0x60>
 ace:	f8 01       	movw	r30, r16
 ad0:	81 91       	ld	r24, Z+
 ad2:	8f 01       	movw	r16, r30
 ad4:	d7 cf       	rjmp	.-82     	; 0xa84 <scan+0xe>
 ad6:	8f ef       	ldi	r24, 0xFF	; 255
 ad8:	cf 91       	pop	r28
 ada:	1f 91       	pop	r17
 adc:	0f 91       	pop	r16
 ade:	08 95       	ret

Disassembly of section .text.init_keypad:

00000c40 <init_keypad>:
 c40:	62 e0       	ldi	r22, 0x02	; 2
 c42:	80 e1       	ldi	r24, 0x10	; 16
 c44:	0e 94 6c 00 	call	0xd8	; 0xd8 <__data_load_end>
 c48:	62 e0       	ldi	r22, 0x02	; 2
 c4a:	81 e1       	ldi	r24, 0x11	; 17
 c4c:	0e 94 6c 00 	call	0xd8	; 0xd8 <__data_load_end>
 c50:	62 e0       	ldi	r22, 0x02	; 2
 c52:	82 e1       	ldi	r24, 0x12	; 18
 c54:	0e 94 6c 00 	call	0xd8	; 0xd8 <__data_load_end>
 c58:	62 e0       	ldi	r22, 0x02	; 2
 c5a:	83 e1       	ldi	r24, 0x13	; 19
 c5c:	0e 94 6c 00 	call	0xd8	; 0xd8 <__data_load_end>
 c60:	61 e0       	ldi	r22, 0x01	; 1
 c62:	84 e1       	ldi	r24, 0x14	; 20
 c64:	0e 94 6c 00 	call	0xd8	; 0xd8 <__data_load_end>
 c68:	61 e0       	ldi	r22, 0x01	; 1
 c6a:	85 e1       	ldi	r24, 0x15	; 21
 c6c:	0e 94 6c 00 	call	0xd8	; 0xd8 <__data_load_end>
 c70:	61 e0       	ldi	r22, 0x01	; 1
 c72:	86 e1       	ldi	r24, 0x16	; 22
 c74:	0e 94 6c 00 	call	0xd8	; 0xd8 <__data_load_end>
 c78:	61 e0       	ldi	r22, 0x01	; 1
 c7a:	87 e1       	ldi	r24, 0x17	; 23
 c7c:	0e 94 6c 00 	call	0xd8	; 0xd8 <__data_load_end>
 c80:	8f e0       	ldi	r24, 0x0F	; 15
 c82:	0c 94 5f 07 	jmp	0xebe	; 0xebe <output_scan_pattern>

Disassembly of section .text.get_key_clicked:

00000f9a <get_key_clicked>:
 f9a:	cf 93       	push	r28
 f9c:	0e 94 3b 05 	call	0xa76	; 0xa76 <scan>
 fa0:	8f 3f       	cpi	r24, 0xFF	; 255
 fa2:	e1 f3       	breq	.-8      	; 0xf9c <get_key_clicked+0x2>
 fa4:	e8 2f       	mov	r30, r24
 fa6:	88 0f       	add	r24, r24
 fa8:	ff 0b       	sbc	r31, r31
 faa:	e4 59       	subi	r30, 0x94	; 148
 fac:	fe 4f       	sbci	r31, 0xFE	; 254
 fae:	c0 81       	ld	r28, Z
 fb0:	0e 94 3b 05 	call	0xa76	; 0xa76 <scan>
 fb4:	8f 3f       	cpi	r24, 0xFF	; 255
 fb6:	e1 f7       	brne	.-8      	; 0xfb0 <get_key_clicked+0x16>
 fb8:	8c 2f       	mov	r24, r28
 fba:	cf 91       	pop	r28
 fbc:	08 95       	ret

Disassembly of section .text.get_key_pressed:

00001080 <get_key_pressed>:
    1080:	0e 94 3b 05 	call	0xa76	; 0xa76 <scan>
    1084:	8f 3f       	cpi	r24, 0xFF	; 255
    1086:	39 f0       	breq	.+14     	; 0x1096 <get_key_pressed+0x16>
    1088:	e8 2f       	mov	r30, r24
    108a:	88 0f       	add	r24, r24
    108c:	ff 0b       	sbc	r31, r31
    108e:	e4 59       	subi	r30, 0x94	; 148
    1090:	fe 4f       	sbci	r31, 0xFE	; 254
    1092:	80 81       	ld	r24, Z
    1094:	08 95       	ret
    1096:	8b e2       	ldi	r24, 0x2B	; 43
    1098:	08 95       	ret

Disassembly of section .text.init_motors:

00000d92 <init_motors>:
 d92:	61 e0       	ldi	r22, 0x01	; 1
 d94:	87 e1       	ldi	r24, 0x17	; 23
 d96:	0e 94 6c 00 	call	0xd8	; 0xd8 <__data_load_end>
 d9a:	61 e0       	ldi	r22, 0x01	; 1
 d9c:	86 e1       	ldi	r24, 0x16	; 22
 d9e:	0e 94 6c 00 	call	0xd8	; 0xd8 <__data_load_end>
 da2:	61 e0       	ldi	r22, 0x01	; 1
 da4:	85 e1       	ldi	r24, 0x15	; 21
 da6:	0e 94 6c 00 	call	0xd8	; 0xd8 <__data_load_end>
 daa:	61 e0       	ldi	r22, 0x01	; 1
 dac:	84 e1       	ldi	r24, 0x14	; 20
 dae:	0e 94 6c 00 	call	0xd8	; 0xd8 <__data_load_end>
 db2:	60 e0       	ldi	r22, 0x00	; 0
 db4:	87 e1       	ldi	r24, 0x17	; 23
 db6:	0e 94 12 01 	call	0x224	; 0x224 <dio_channel_set>
 dba:	60 e0       	ldi	r22, 0x00	; 0
 dbc:	86 e1       	ldi	r24, 0x16	; 22
 dbe:	0e 94 12 01 	call	0x224	; 0x224 <dio_channel_set>
 dc2:	60 e0       	ldi	r22, 0x00	; 0
 dc4:	85 e1       	ldi	r24, 0x15	; 21
 dc6:	0e 94 12 01 	call	0x224	; 0x224 <dio_channel_set>
 dca:	60 e0       	ldi	r22, 0x00	; 0
 dcc:	84 e1       	ldi	r24, 0x14	; 20
 dce:	0c 94 12 01 	jmp	0x224	; 0x224 <dio_channel_set>

Disassembly of section .text.motors_forward:

00000fe0 <motors_forward>:
     fe0:	60 e0       	ldi	r22, 0x00	; 0
     fe2:	87 e1       	ldi	r24, 0x17	; 23
     fe4:	0e 94 12 01 	call	0x224	; 0x224 <dio_channel_set>
     fe8:	61 e0       	ldi	r22, 0x01	; 1
     fea:	86 e1       	ldi	r24, 0x16	; 22
     fec:	0e 94 12 01 	call	0x224	; 0x224 <dio_channel_set>
     ff0:	60 e0       	ldi	r22, 0x00	; 0
     ff2:	85 e1       	ldi	r24, 0x15	; 21
     ff4:	0e 94 12 01 	call	0x224	; 0x224 <dio_channel_set>
     ff8:	61 e0       	ldi	r22, 0x01	; 1
     ffa:	84 e1       	ldi	r24, 0x14	; 20
     ffc:	0c 94 12 01 	jmp	0x224	; 0x224 <dio_channel_set>

Disassembly of section .text.motors_backward:

00001000 <motors_backward>:
    1000:	61 e0       	ldi	r22, 0x01	; 1
    1002:	87 e1       	ldi	r24, 0x17	; 23
    1004:	0e 94 12 01 	call	0x224	; 0x224 <dio_channel_set>
    1008:	60 e0       	ldi	r22, 0x00	; 0
    100a:	86 e1       	ldi	r24, 0x16	; 22
    100c:	0e 94 12 01 	call	0x224	; 0x224 <dio_channel_set>
    1010:	61 e0       	ldi	r22, 0x01	; 1
    1012:	85 e1       	ldi	r24, 0x15	; 21
    1014:	0e 94 12 01 	call	0x224	; 0x224 <dio_channel_set>
    1018:	60 e0       	ldi	r22, 0x00	; 0
    101a:	84 e1       	ldi	r24, 0x14	; 20
    101c:	0c 94 12 01 	jmp	0x224	; 0x224 <dio_channel_set>

Disassembly of section .text.motors_rotate_cw:

00001020 <motors_rotate_cw>:
    1020:	61 e0       	ldi	r22, 0x01	; 1
    1022:	87 e1       	ldi	r24, 0x17	; 23
    1024:	0e 94 12 01 	call	0x224	; 0x224 <dio_channel_set>
    1028:	60 e0       	ldi	r22, 0x00	; 0
    102a:	86 e1       	ldi	r24, 0x16	; 22
    102c:	0e 94 12 01 	call	0x224	; 0x224 <dio_channel_set>
    1030:	60 e0       	ldi	r22, 0x00	; 0
    1032:	85 e1       	ldi	r24, 0x15	; 21
    1034:	0e 94 12 01 	call	0x224	; 0x224 <dio_channel_set>
    1038:	61 e0       	ldi	r22, 0x01	; 1
    103a:	84 e1       	ldi	r24, 0x14	; 20
    103c:	0c 94 12 01 	jmp	0x224	; 0x224 <dio_channel_set>

Disassembly of section .text.motors_rotate_acw:

00001040 <motors_rotate_acw>:
    1040:	60 e0       	ldi	r22, 0x00	; 0
    1042:	87 e1       	ldi	r24, 0x17	; 23
    1044:	0e 94 12 01 	call	0x224	; 0x224 <dio_channel_set>
    1048:	61 e0       	ldi	r22, 0x01	; 1
    104a:	86 e1       	ldi	r24, 0x16	; 22
    104c:	0e 94 12 01 	call	0x224	; 0x224 <dio_channel_set>
    1050:	61 e0       	ldi	r22, 0x01	; 1
    1052:	85 e1       	ldi	r24, 0x15	; 21
    1054:	0e 94 12 01 	call	0x224	; 0x224 <dio_channel_set>
    1058:	60 e0       	ldi	r22, 0x00	; 0
    105a:	84 e1       	ldi	r24, 0x14	; 20
    105c:	0c 94 12 01 	jmp	0x224	; 0x224 <dio_channel_set>

Disassembly of section .text.motors_hold:

00001060 <motors_hold>:
    1060:	60 e0       	ldi	r22, 0x00	; 0
    1062:	87 e1       	ldi	r24, 0x17	; 23
    1064:	0e 94 12 01 	call	0x224	; 0x224 <dio_channel_set>
    1068:	60 e0       	ldi	r22, 0x00	; 0
    106a:	86 e1       	ldi	r24, 0x16	; 22
    106c:	0e 94 12 01 	call	0x224	; 0x224 <dio_channel_set>
    1070:	60 e0       	ldi	r22, 0x00	; 0
    1072:	85 e1       	ldi	r24, 0x15	; 21
    1074:	0e 94 12 01 	call	0x224	; 0x224 <dio_channel_set>
    1078:	60 e0       	ldi	r22, 0x00	; 0
    107a:	84 e1       	ldi	r24, 0x14	; 20
    107c:	0c 94 12 01 	jmp	0x224	; 0x224 <dio_channel_set>

Disassembly of section .text.init_system:

00000e10 <init_system>:
 e10:	0e 94 20 06 	call	0xc40	; 0xc40 <init_keypad>
 e14:	0e 94 23 04 	call	0x846	; 0x846 <init_lcd>
 e18:	41 e0       	ldi	r20, 0x01	; 1
 e1a:	61 e0       	ldi	r22, 0x01	; 1
 e1c:	80 e0       	ldi	r24, 0x00	; 0
 e1e:	91 e0       	ldi	r25, 0x01	; 1
 e20:	0e 94 fb 05 	call	0xbf6	; 0xbf6 <lcd_write_text>
 e24:	2f ef       	ldi	r18, 0xFF	; 255
 e26:	89 e6       	ldi	r24, 0x69	; 105
 e28:	98 e1       	ldi	r25, 0x18	; 24
 e2a:	21 50       	subi	r18, 0x01	; 1
 e2c:	80 40       	sbci	r24, 0x00	; 0
 e2e:	90 40       	sbci	r25, 0x00	; 0
 e30:	e1 f7       	brne	.-8      	; 0xe2a <init_system+0x1a>
 e32:	00 c0       	rjmp	.+0      	; 0xe34 <init_system+0x24>
 e34:	00 00       	nop
 e36:	0e 94 6f 08 	call	0x10de	; 0x10de <lcd_clear>
 e3a:	2f ef       	ldi	r18, 0xFF	; 255
 e3c:	89 e6       	ldi	r24, 0x69	; 105
 e3e:	98 e1       	ldi	r25, 0x18	; 24
 e40:	21 50       	subi	r18, 0x01	; 1
 e42:	80 40       	sbci	r24, 0x00	; 0
 e44:	90 40       	sbci	r25, 0x00	; 0
 e46:	e1 f7       	brne	.-8      	; 0xe40 <init_system+0x30>
 e48:	00 c0       	rjmp	.+0      	; 0xe4a <init_system+0x3a>
 e4a:	00 00       	nop
 e4c:	08 95       	ret

Disassembly of section .text.is_this_new_safe:

000010f2 <is_this_new_safe>:
    10f2:	80 e0       	ldi	r24, 0x00	; 0
    10f4:	90 e0       	ldi	r25, 0x00	; 0
    10f6:	0e 94 99 08 	call	0x1132	; 0x1132 <EEPROM_read>
    10fa:	91 e0       	ldi	r25, 0x01	; 1
    10fc:	80 3e       	cpi	r24, 0xE0	; 224
    10fe:	09 f0       	breq	.+2      	; 0x1102 <is_this_new_safe+0x10>
    1100:	90 e0       	ldi	r25, 0x00	; 0
    1102:	89 2f       	mov	r24, r25
    1104:	08 95       	ret

Disassembly of section .text.enter_new_password_handeller:

00000350 <enter_new_password_handeller>:
 350:	af 92       	push	r10
 352:	bf 92       	push	r11
 354:	cf 92       	push	r12
 356:	df 92       	push	r13
 358:	ff 92       	push	r15
 35a:	0f 93       	push	r16
 35c:	1f 93       	push	r17
 35e:	cf 93       	push	r28
 360:	df 93       	push	r29
 362:	cd b7       	in	r28, 0x3d	; 61
 364:	de b7       	in	r29, 0x3e	; 62
 366:	2a 97       	sbiw	r28, 0x0a	; 10
 368:	0f b6       	in	r0, 0x3f	; 63
 36a:	f8 94       	cli
 36c:	de bf       	out	0x3e, r29	; 62
 36e:	0f be       	out	0x3f, r0	; 63
 370:	cd bf       	out	0x3d, r28	; 61
 372:	41 e0       	ldi	r20, 0x01	; 1
 374:	61 e0       	ldi	r22, 0x01	; 1
 376:	89 e0       	ldi	r24, 0x09	; 9
 378:	91 e0       	ldi	r25, 0x01	; 1
 37a:	0e 94 fb 05 	call	0xbf6	; 0xbf6 <lcd_write_text>
 37e:	41 e0       	ldi	r20, 0x01	; 1
 380:	62 e0       	ldi	r22, 0x02	; 2
 382:	80 e2       	ldi	r24, 0x20	; 32
 384:	0e 94 a5 07 	call	0xf4a	; 0xf4a <lcd_write_char>
 388:	f1 2c       	mov	r15, r1
 38a:	0e 94 cd 07 	call	0xf9a	; 0xf9a <get_key_clicked>
 38e:	84 34       	cpi	r24, 0x44	; 68
 390:	91 f0       	breq	.+36     	; 0x3b6 <enter_new_password_handeller+0x66>
 392:	29 e0       	ldi	r18, 0x09	; 9
 394:	2f 15       	cp	r18, r15
 396:	08 f0       	brcs	.+2      	; 0x39a <enter_new_password_handeller+0x4a>
 398:	43 c0       	rjmp	.+134    	; 0x420 <__EEPROM_REGION_LENGTH__+0x20>
 39a:	2a e0       	ldi	r18, 0x0A	; 10
 39c:	f2 12       	cpse	r15, r18
 39e:	f5 cf       	rjmp	.-22     	; 0x38a <enter_new_password_handeller+0x3a>
 3a0:	41 e0       	ldi	r20, 0x01	; 1
 3a2:	62 e0       	ldi	r22, 0x02	; 2
 3a4:	87 e3       	ldi	r24, 0x37	; 55
 3a6:	91 e0       	ldi	r25, 0x01	; 1
 3a8:	0e 94 fb 05 	call	0xbf6	; 0xbf6 <lcd_write_text>
 3ac:	41 e0       	ldi	r20, 0x01	; 1
 3ae:	62 e0       	ldi	r22, 0x02	; 2
 3b0:	87 e2       	ldi	r24, 0x27	; 39
 3b2:	91 e0       	ldi	r25, 0x01	; 1
 3b4:	e2 cf       	rjmp	.-60     	; 0x37a <enter_new_password_handeller+0x2a>
 3b6:	83 e0       	ldi	r24, 0x03	; 3
 3b8:	8f 15       	cp	r24, r15
 3ba:	f0 f5       	brcc	.+124    	; 0x438 <__EEPROM_REGION_LENGTH__+0x38>
 3bc:	ce 01       	movw	r24, r28
 3be:	01 96       	adiw	r24, 0x01	; 1
 3c0:	6c 01       	movw	r12, r24
 3c2:	aa 24       	eor	r10, r10
 3c4:	aa 94       	dec	r10
 3c6:	af 0c       	add	r10, r15
 3c8:	b1 2c       	mov	r11, r1
 3ca:	93 e0       	ldi	r25, 0x03	; 3
 3cc:	a9 0e       	add	r10, r25
 3ce:	b1 1c       	adc	r11, r1
 3d0:	02 e0       	ldi	r16, 0x02	; 2
 3d2:	10 e0       	ldi	r17, 0x00	; 0
 3d4:	f6 01       	movw	r30, r12
 3d6:	61 91       	ld	r22, Z+
 3d8:	6f 01       	movw	r12, r30
 3da:	c8 01       	movw	r24, r16
 3dc:	0e 94 83 08 	call	0x1106	; 0x1106 <EEPROM_write>
 3e0:	0f 5f       	subi	r16, 0xFF	; 255
 3e2:	1f 4f       	sbci	r17, 0xFF	; 255
 3e4:	0a 15       	cp	r16, r10
 3e6:	1b 05       	cpc	r17, r11
 3e8:	a9 f7       	brne	.-22     	; 0x3d4 <enter_new_password_handeller+0x84>
 3ea:	60 ee       	ldi	r22, 0xE0	; 224
 3ec:	80 e0       	ldi	r24, 0x00	; 0
 3ee:	90 e0       	ldi	r25, 0x00	; 0
 3f0:	0e 94 83 08 	call	0x1106	; 0x1106 <EEPROM_write>
 3f4:	6f 2d       	mov	r22, r15
 3f6:	81 e0       	ldi	r24, 0x01	; 1
 3f8:	90 e0       	ldi	r25, 0x00	; 0
 3fa:	0e 94 83 08 	call	0x1106	; 0x1106 <EEPROM_write>
 3fe:	2a 96       	adiw	r28, 0x0a	; 10
 400:	0f b6       	in	r0, 0x3f	; 63
 402:	f8 94       	cli
 404:	de bf       	out	0x3e, r29	; 62
 406:	0f be       	out	0x3f, r0	; 63
 408:	cd bf       	out	0x3d, r28	; 61
 40a:	df 91       	pop	r29
 40c:	cf 91       	pop	r28
 40e:	1f 91       	pop	r17
 410:	0f 91       	pop	r16
 412:	ff 90       	pop	r15
 414:	df 90       	pop	r13
 416:	cf 90       	pop	r12
 418:	bf 90       	pop	r11
 41a:	af 90       	pop	r10
 41c:	0c 94 6f 08 	jmp	0x10de	; 0x10de <lcd_clear>
 420:	e1 e0       	ldi	r30, 0x01	; 1
 422:	f0 e0       	ldi	r31, 0x00	; 0
 424:	ec 0f       	add	r30, r28
 426:	fd 1f       	adc	r31, r29
 428:	ef 0d       	add	r30, r15
 42a:	f1 1d       	adc	r31, r1
 42c:	80 83       	st	Z, r24
 42e:	f3 94       	inc	r15
 430:	8a e2       	ldi	r24, 0x2A	; 42
 432:	0e 94 cf 08 	call	0x119e	; 0x119e <lcd_write_char_cp>
 436:	a9 cf       	rjmp	.-174    	; 0x38a <enter_new_password_handeller+0x3a>
 438:	41 e0       	ldi	r20, 0x01	; 1
 43a:	62 e0       	ldi	r22, 0x02	; 2
 43c:	88 e1       	ldi	r24, 0x18	; 24
 43e:	91 e0       	ldi	r25, 0x01	; 1
 440:	0e 94 fb 05 	call	0xbf6	; 0xbf6 <lcd_write_text>
 444:	9f ef       	ldi	r25, 0xFF	; 255
 446:	e3 ed       	ldi	r30, 0xD3	; 211
 448:	f0 e3       	ldi	r31, 0x30	; 48
 44a:	91 50       	subi	r25, 0x01	; 1
 44c:	e0 40       	sbci	r30, 0x00	; 0
 44e:	f0 40       	sbci	r31, 0x00	; 0
 450:	e1 f7       	brne	.-8      	; 0x44a <__EEPROM_REGION_LENGTH__+0x4a>
 452:	00 c0       	rjmp	.+0      	; 0x454 <__EEPROM_REGION_LENGTH__+0x54>
 454:	00 00       	nop
 456:	aa cf       	rjmp	.-172    	; 0x3ac <enter_new_password_handeller+0x5c>

Disassembly of section .text.load_save_configuration:

00000b42 <load_save_configuration>:
 b42:	df 92       	push	r13
 b44:	ef 92       	push	r14
 b46:	ff 92       	push	r15
 b48:	0f 93       	push	r16
 b4a:	1f 93       	push	r17
 b4c:	cf 93       	push	r28
 b4e:	df 93       	push	r29
 b50:	d8 2f       	mov	r29, r24
 b52:	c9 2f       	mov	r28, r25
 b54:	81 e0       	ldi	r24, 0x01	; 1
 b56:	90 e0       	ldi	r25, 0x00	; 0
 b58:	0e 94 99 08 	call	0x1132	; 0x1132 <EEPROM_read>
 b5c:	d8 2e       	mov	r13, r24
 b5e:	88 23       	and	r24, r24
 b60:	a9 f0       	breq	.+42     	; 0xb8c <load_save_configuration+0x4a>
 b62:	0d 2f       	mov	r16, r29
 b64:	1c 2f       	mov	r17, r28
 b66:	ee 24       	eor	r14, r14
 b68:	ea 94       	dec	r14
 b6a:	e8 0e       	add	r14, r24
 b6c:	f1 2c       	mov	r15, r1
 b6e:	83 e0       	ldi	r24, 0x03	; 3
 b70:	e8 0e       	add	r14, r24
 b72:	f1 1c       	adc	r15, r1
 b74:	c2 e0       	ldi	r28, 0x02	; 2
 b76:	d0 e0       	ldi	r29, 0x00	; 0
 b78:	ce 01       	movw	r24, r28
 b7a:	0e 94 99 08 	call	0x1132	; 0x1132 <EEPROM_read>
 b7e:	f8 01       	movw	r30, r16
 b80:	81 93       	st	Z+, r24
 b82:	8f 01       	movw	r16, r30
 b84:	21 96       	adiw	r28, 0x01	; 1
 b86:	ce 15       	cp	r28, r14
 b88:	df 05       	cpc	r29, r15
 b8a:	b1 f7       	brne	.-20     	; 0xb78 <load_save_configuration+0x36>
 b8c:	8d 2d       	mov	r24, r13
 b8e:	df 91       	pop	r29
 b90:	cf 91       	pop	r28
 b92:	1f 91       	pop	r17
 b94:	0f 91       	pop	r16
 b96:	ff 90       	pop	r15
 b98:	ef 90       	pop	r14
 b9a:	df 90       	pop	r13
 b9c:	08 95       	ret

Disassembly of section .text.scan_save_password:

00000458 <scan_save_password>:
 458:	0f 93       	push	r16
 45a:	1f 93       	push	r17
 45c:	cf 93       	push	r28
 45e:	df 93       	push	r29
 460:	8c 01       	movw	r16, r24
 462:	eb 01       	movw	r28, r22
 464:	18 82       	st	Y, r1
 466:	41 e0       	ldi	r20, 0x01	; 1
 468:	61 e0       	ldi	r22, 0x01	; 1
 46a:	85 e4       	ldi	r24, 0x45	; 69
 46c:	91 e0       	ldi	r25, 0x01	; 1
 46e:	0e 94 fb 05 	call	0xbf6	; 0xbf6 <lcd_write_text>
 472:	41 e0       	ldi	r20, 0x01	; 1
 474:	62 e0       	ldi	r22, 0x02	; 2
 476:	80 e2       	ldi	r24, 0x20	; 32
 478:	0e 94 a5 07 	call	0xf4a	; 0xf4a <lcd_write_char>
 47c:	0e 94 cd 07 	call	0xf9a	; 0xf9a <get_key_clicked>
 480:	84 34       	cpi	r24, 0x44	; 68
 482:	29 f1       	breq	.+74     	; 0x4ce <scan_save_password+0x76>
 484:	98 81       	ld	r25, Y
 486:	9a 30       	cpi	r25, 0x0A	; 10
 488:	08 f4       	brcc	.+2      	; 0x48c <scan_save_password+0x34>
 48a:	40 c0       	rjmp	.+128    	; 0x50c <scan_save_password+0xb4>
 48c:	9a 30       	cpi	r25, 0x0A	; 10
 48e:	b1 f7       	brne	.-20     	; 0x47c <scan_save_password+0x24>
 490:	41 e0       	ldi	r20, 0x01	; 1
 492:	62 e0       	ldi	r22, 0x02	; 2
 494:	87 e3       	ldi	r24, 0x37	; 55
 496:	91 e0       	ldi	r25, 0x01	; 1
 498:	0e 94 fb 05 	call	0xbf6	; 0xbf6 <lcd_write_text>
 49c:	41 e0       	ldi	r20, 0x01	; 1
 49e:	62 e0       	ldi	r22, 0x02	; 2
 4a0:	87 e2       	ldi	r24, 0x27	; 39
 4a2:	91 e0       	ldi	r25, 0x01	; 1
 4a4:	0e 94 fb 05 	call	0xbf6	; 0xbf6 <lcd_write_text>
 4a8:	41 e0       	ldi	r20, 0x01	; 1
 4aa:	62 e0       	ldi	r22, 0x02	; 2
 4ac:	80 e2       	ldi	r24, 0x20	; 32
 4ae:	0e 94 a5 07 	call	0xf4a	; 0xf4a <lcd_write_char>
 4b2:	2f ef       	ldi	r18, 0xFF	; 255
 4b4:	83 ed       	ldi	r24, 0xD3	; 211
 4b6:	90 e3       	ldi	r25, 0x30	; 48
 4b8:	21 50       	subi	r18, 0x01	; 1
 4ba:	80 40       	sbci	r24, 0x00	; 0
 4bc:	90 40       	sbci	r25, 0x00	; 0
 4be:	e1 f7       	brne	.-8      	; 0x4b8 <scan_save_password+0x60>
 4c0:	00 c0       	rjmp	.+0      	; 0x4c2 <scan_save_password+0x6a>
 4c2:	00 00       	nop
 4c4:	18 82       	st	Y, r1
 4c6:	0e 94 cd 07 	call	0xf9a	; 0xf9a <get_key_clicked>
 4ca:	84 34       	cpi	r24, 0x44	; 68
 4cc:	d9 f6       	brne	.-74     	; 0x484 <scan_save_password+0x2c>
 4ce:	88 81       	ld	r24, Y
 4d0:	84 30       	cpi	r24, 0x04	; 4
 4d2:	38 f5       	brcc	.+78     	; 0x522 <scan_save_password+0xca>
 4d4:	41 e0       	ldi	r20, 0x01	; 1
 4d6:	62 e0       	ldi	r22, 0x02	; 2
 4d8:	88 e1       	ldi	r24, 0x18	; 24
 4da:	91 e0       	ldi	r25, 0x01	; 1
 4dc:	0e 94 fb 05 	call	0xbf6	; 0xbf6 <lcd_write_text>
 4e0:	2f ef       	ldi	r18, 0xFF	; 255
 4e2:	83 ed       	ldi	r24, 0xD3	; 211
 4e4:	90 e3       	ldi	r25, 0x30	; 48
 4e6:	21 50       	subi	r18, 0x01	; 1
 4e8:	80 40       	sbci	r24, 0x00	; 0
 4ea:	90 40       	sbci	r25, 0x00	; 0
 4ec:	e1 f7       	brne	.-8      	; 0x4e6 <scan_save_password+0x8e>
 4ee:	00 c0       	rjmp	.+0      	; 0x4f0 <scan_save_password+0x98>
 4f0:	00 00       	nop
 4f2:	41 e0       	ldi	r20, 0x01	; 1
 4f4:	62 e0       	ldi	r22, 0x02	; 2
 4f6:	87 e2       	ldi	r24, 0x27	; 39
 4f8:	91 e0       	ldi	r25, 0x01	; 1
 4fa:	0e 94 fb 05 	call	0xbf6	; 0xbf6 <lcd_write_text>
 4fe:	41 e0       	ldi	r20, 0x01	; 1
 500:	62 e0       	ldi	r22, 0x02	; 2
 502:	80 e2       	ldi	r24, 0x20	; 32
 504:	0e 94 a5 07 	call	0xf4a	; 0xf4a <lcd_write_char>
 508:	18 82       	st	Y, r1
 50a:	dd cf       	rjmp	.-70     	; 0x4c6 <scan_save_password+0x6e>
 50c:	f8 01       	movw	r30, r16
 50e:	e9 0f       	add	r30, r25
 510:	f1 1d       	adc	r31, r1
 512:	80 83       	st	Z, r24
 514:	88 81       	ld	r24, Y
 516:	8f 5f       	subi	r24, 0xFF	; 255
 518:	88 83       	st	Y, r24
 51a:	8a e2       	ldi	r24, 0x2A	; 42
 51c:	0e 94 cf 08 	call	0x119e	; 0x119e <lcd_write_char_cp>
 520:	ad cf       	rjmp	.-166    	; 0x47c <scan_save_password+0x24>
 522:	0e 94 6f 08 	call	0x10de	; 0x10de <lcd_clear>
 526:	0e 94 6f 08 	call	0x10de	; 0x10de <lcd_clear>
 52a:	81 e0       	ldi	r24, 0x01	; 1
 52c:	df 91       	pop	r29
 52e:	cf 91       	pop	r28
 530:	1f 91       	pop	r17
 532:	0f 91       	pop	r16
 534:	08 95       	ret

Disassembly of section .text.key_safe_app:

00000608 <key_safe_app>:
 608:	cf 93       	push	r28
 60a:	df 93       	push	r29
 60c:	cd b7       	in	r28, 0x3d	; 61
 60e:	de b7       	in	r29, 0x3e	; 62
 610:	65 97       	sbiw	r28, 0x15	; 21
 612:	0f b6       	in	r0, 0x3f	; 63
 614:	f8 94       	cli
 616:	de bf       	out	0x3e, r29	; 62
 618:	0f be       	out	0x3f, r0	; 63
 61a:	cd bf       	out	0x3d, r28	; 61
 61c:	1d 8a       	std	Y+21, r1	; 0x15
 61e:	2f ef       	ldi	r18, 0xFF	; 255
 620:	85 ea       	ldi	r24, 0xA5	; 165
 622:	9e e0       	ldi	r25, 0x0E	; 14
 624:	21 50       	subi	r18, 0x01	; 1
 626:	80 40       	sbci	r24, 0x00	; 0
 628:	90 40       	sbci	r25, 0x00	; 0
 62a:	e1 f7       	brne	.-8      	; 0x624 <key_safe_app+0x1c>
 62c:	00 c0       	rjmp	.+0      	; 0x62e <key_safe_app+0x26>
 62e:	00 00       	nop
 630:	0e 94 08 07 	call	0xe10	; 0xe10 <init_system>
 634:	80 e0       	ldi	r24, 0x00	; 0
 636:	90 e0       	ldi	r25, 0x00	; 0
 638:	0e 94 99 08 	call	0x1132	; 0x1132 <EEPROM_read>
 63c:	80 3e       	cpi	r24, 0xE0	; 224
 63e:	11 f4       	brne	.+4      	; 0x644 <key_safe_app+0x3c>
 640:	0e 94 a8 01 	call	0x350	; 0x350 <enter_new_password_handeller>
 644:	ce 01       	movw	r24, r28
 646:	0b 96       	adiw	r24, 0x0b	; 11
 648:	0e 94 a1 05 	call	0xb42	; 0xb42 <load_save_configuration>
 64c:	f8 2e       	mov	r15, r24
 64e:	0f ef       	ldi	r16, 0xFF	; 255
 650:	08 0f       	add	r16, r24
 652:	10 e0       	ldi	r17, 0x00	; 0
 654:	0f 5f       	subi	r16, 0xFF	; 255
 656:	1f 4f       	sbci	r17, 0xFF	; 255
 658:	81 e0       	ldi	r24, 0x01	; 1
 65a:	90 e0       	ldi	r25, 0x00	; 0
 65c:	8c 0f       	add	r24, r28
 65e:	9d 1f       	adc	r25, r29
 660:	08 0f       	add	r16, r24
 662:	19 1f       	adc	r17, r25
 664:	be 01       	movw	r22, r28
 666:	6b 5e       	subi	r22, 0xEB	; 235
 668:	7f 4f       	sbci	r23, 0xFF	; 255
 66a:	ce 01       	movw	r24, r28
 66c:	01 96       	adiw	r24, 0x01	; 1
 66e:	0e 94 2c 02 	call	0x458	; 0x458 <scan_save_password>
 672:	88 23       	and	r24, r24
 674:	b9 f3       	breq	.-18     	; 0x664 <key_safe_app+0x5c>
 676:	8d 89       	ldd	r24, Y+21	; 0x15
 678:	f8 16       	cp	r15, r24
 67a:	a1 f0       	breq	.+40     	; 0x6a4 <key_safe_app+0x9c>
 67c:	0e 94 6f 08 	call	0x10de	; 0x10de <lcd_clear>
 680:	41 e0       	ldi	r20, 0x01	; 1
 682:	62 e0       	ldi	r22, 0x02	; 2
 684:	86 e6       	ldi	r24, 0x66	; 102
 686:	91 e0       	ldi	r25, 0x01	; 1
 688:	0e 94 fb 05 	call	0xbf6	; 0xbf6 <lcd_write_text>
 68c:	9f ef       	ldi	r25, 0xFF	; 255
 68e:	23 ed       	ldi	r18, 0xD3	; 211
 690:	80 e3       	ldi	r24, 0x30	; 48
 692:	91 50       	subi	r25, 0x01	; 1
 694:	20 40       	sbci	r18, 0x00	; 0
 696:	80 40       	sbci	r24, 0x00	; 0
 698:	e1 f7       	brne	.-8      	; 0x692 <key_safe_app+0x8a>
 69a:	00 c0       	rjmp	.+0      	; 0x69c <key_safe_app+0x94>
 69c:	00 00       	nop
 69e:	0e 94 6f 08 	call	0x10de	; 0x10de <lcd_clear>
 6a2:	e0 cf       	rjmp	.-64     	; 0x664 <key_safe_app+0x5c>
 6a4:	ff 20       	and	r15, r15
 6a6:	81 f0       	breq	.+32     	; 0x6c8 <key_safe_app+0xc0>
 6a8:	9b 85       	ldd	r25, Y+11	; 0x0b
 6aa:	89 81       	ldd	r24, Y+1	; 0x01
 6ac:	98 13       	cpse	r25, r24
 6ae:	e6 cf       	rjmp	.-52     	; 0x67c <key_safe_app+0x74>
 6b0:	fe 01       	movw	r30, r28
 6b2:	32 96       	adiw	r30, 0x02	; 2
 6b4:	de 01       	movw	r26, r28
 6b6:	1c 96       	adiw	r26, 0x0c	; 12
 6b8:	04 c0       	rjmp	.+8      	; 0x6c2 <key_safe_app+0xba>
 6ba:	91 91       	ld	r25, Z+
 6bc:	8d 91       	ld	r24, X+
 6be:	98 13       	cpse	r25, r24
 6c0:	dd cf       	rjmp	.-70     	; 0x67c <key_safe_app+0x74>
 6c2:	e0 17       	cp	r30, r16
 6c4:	f1 07       	cpc	r31, r17
 6c6:	c9 f7       	brne	.-14     	; 0x6ba <key_safe_app+0xb2>
 6c8:	0e 94 6f 08 	call	0x10de	; 0x10de <lcd_clear>
 6cc:	41 e0       	ldi	r20, 0x01	; 1
 6ce:	62 e0       	ldi	r22, 0x02	; 2
 6d0:	85 e5       	ldi	r24, 0x55	; 85
 6d2:	91 e0       	ldi	r25, 0x01	; 1
 6d4:	d9 cf       	rjmp	.-78     	; 0x688 <key_safe_app+0x80>

Disassembly of section .text.is_passwords_equal:

00000e4e <is_passwords_equal>:
 e4e:	44 23       	and	r20, r20
 e50:	c1 f0       	breq	.+48     	; 0xe82 <is_passwords_equal+0x34>
 e52:	fc 01       	movw	r30, r24
 e54:	30 81       	ld	r19, Z
 e56:	fb 01       	movw	r30, r22
 e58:	20 81       	ld	r18, Z
 e5a:	32 13       	cpse	r19, r18
 e5c:	14 c0       	rjmp	.+40     	; 0xe86 <is_passwords_equal+0x38>
 e5e:	fc 01       	movw	r30, r24
 e60:	31 96       	adiw	r30, 0x01	; 1
 e62:	db 01       	movw	r26, r22
 e64:	11 96       	adiw	r26, 0x01	; 1
 e66:	41 50       	subi	r20, 0x01	; 1
 e68:	50 e0       	ldi	r21, 0x00	; 0
 e6a:	4f 5f       	subi	r20, 0xFF	; 255
 e6c:	5f 4f       	sbci	r21, 0xFF	; 255
 e6e:	48 0f       	add	r20, r24
 e70:	59 1f       	adc	r21, r25
 e72:	04 c0       	rjmp	.+8      	; 0xe7c <is_passwords_equal+0x2e>
 e74:	21 91       	ld	r18, Z+
 e76:	9d 91       	ld	r25, X+
 e78:	29 13       	cpse	r18, r25
 e7a:	05 c0       	rjmp	.+10     	; 0xe86 <is_passwords_equal+0x38>
 e7c:	e4 17       	cp	r30, r20
 e7e:	f5 07       	cpc	r31, r21
 e80:	c9 f7       	brne	.-14     	; 0xe74 <is_passwords_equal+0x26>
 e82:	81 e0       	ldi	r24, 0x01	; 1
 e84:	08 95       	ret
 e86:	80 e0       	ldi	r24, 0x00	; 0
 e88:	08 95       	ret

Disassembly of section .text.robot_app:

00000a00 <robot_app>:
 a00:	62 e0       	ldi	r22, 0x02	; 2
 a02:	83 e1       	ldi	r24, 0x13	; 19
 a04:	0e 94 6c 00 	call	0xd8	; 0xd8 <__data_load_end>
 a08:	61 e0       	ldi	r22, 0x01	; 1
 a0a:	81 e1       	ldi	r24, 0x11	; 17
 a0c:	0e 94 6c 00 	call	0xd8	; 0xd8 <__data_load_end>
 a10:	60 e0       	ldi	r22, 0x00	; 0
 a12:	80 e1       	ldi	r24, 0x10	; 16
 a14:	0e 94 6c 00 	call	0xd8	; 0xd8 <__data_load_end>
 a18:	80 e8       	ldi	r24, 0x80	; 128
 a1a:	95 e2       	ldi	r25, 0x25	; 37
 a1c:	0e 94 7b 04 	call	0x8f6	; 0x8f6 <init_usart>
 a20:	2f ef       	ldi	r18, 0xFF	; 255
 a22:	83 e2       	ldi	r24, 0x23	; 35
 a24:	94 ef       	ldi	r25, 0xF4	; 244
 a26:	21 50       	subi	r18, 0x01	; 1
 a28:	80 40       	sbci	r24, 0x00	; 0
 a2a:	90 40       	sbci	r25, 0x00	; 0
 a2c:	e1 f7       	brne	.-8      	; 0xa26 <robot_app+0x26>
 a2e:	00 c0       	rjmp	.+0      	; 0xa30 <robot_app+0x30>
 a30:	00 00       	nop
 a32:	0e 94 c9 06 	call	0xd92	; 0xd92 <init_motors>
 a36:	0e 94 b5 08 	call	0x116a	; 0x116a <usart_data_available>
 a3a:	88 23       	and	r24, r24
 a3c:	e1 f3       	breq	.-8      	; 0xa36 <robot_app+0x36>
 a3e:	0e 94 92 08 	call	0x1124	; 0x1124 <usart_read_char>
 a42:	8c 34       	cpi	r24, 0x4C	; 76
 a44:	79 f0       	breq	.+30     	; 0xa64 <robot_app+0x64>
 a46:	38 f4       	brcc	.+14     	; 0xa56 <robot_app+0x56>
 a48:	82 34       	cpi	r24, 0x42	; 66
 a4a:	79 f0       	breq	.+30     	; 0xa6a <robot_app+0x6a>
 a4c:	86 34       	cpi	r24, 0x46	; 70
 a4e:	99 f7       	brne	.-26     	; 0xa36 <robot_app+0x36>
 a50:	0e 94 f0 07 	call	0xfe0	; 0xfe0 <motors_forward>
 a54:	f0 cf       	rjmp	.-32     	; 0xa36 <robot_app+0x36>
 a56:	82 35       	cpi	r24, 0x52	; 82
 a58:	59 f0       	breq	.+22     	; 0xa70 <robot_app+0x70>
 a5a:	83 35       	cpi	r24, 0x53	; 83
 a5c:	61 f7       	brne	.-40     	; 0xa36 <robot_app+0x36>
 a5e:	0e 94 30 08 	call	0x1060	; 0x1060 <motors_hold>
 a62:	e9 cf       	rjmp	.-46     	; 0xa36 <robot_app+0x36>
 a64:	0e 94 20 08 	call	0x1040	; 0x1040 <motors_rotate_acw>
 a68:	e6 cf       	rjmp	.-52     	; 0xa36 <robot_app+0x36>
 a6a:	0e 94 00 08 	call	0x1000	; 0x1000 <motors_backward>
 a6e:	e3 cf       	rjmp	.-58     	; 0xa36 <robot_app+0x36>
 a70:	0e 94 10 08 	call	0x1020	; 0x1020 <motors_rotate_cw>
 a74:	e0 cf       	rjmp	.-64     	; 0xa36 <robot_app+0x36>

Disassembly of section .text.startup.main:

00001182 <main>:
    1182:	0e 94 00 05 	call	0xa00	; 0xa00 <robot_app>
    1186:	80 e0       	ldi	r24, 0x00	; 0
    1188:	90 e0       	ldi	r25, 0x00	; 0
    118a:	08 95       	ret

Disassembly of section .text.libgcc.div:

00000cca <__udivmodsi4>:
 cca:	a1 e2       	ldi	r26, 0x21	; 33
 ccc:	1a 2e       	mov	r1, r26
 cce:	aa 1b       	sub	r26, r26
 cd0:	bb 1b       	sub	r27, r27
 cd2:	fd 01       	movw	r30, r26
 cd4:	0d c0       	rjmp	.+26     	; 0xcf0 <__udivmodsi4_ep>

00000cd6 <__udivmodsi4_loop>:
 cd6:	aa 1f       	adc	r26, r26
 cd8:	bb 1f       	adc	r27, r27
 cda:	ee 1f       	adc	r30, r30
 cdc:	ff 1f       	adc	r31, r31
 cde:	a2 17       	cp	r26, r18
 ce0:	b3 07       	cpc	r27, r19
 ce2:	e4 07       	cpc	r30, r20
 ce4:	f5 07       	cpc	r31, r21
 ce6:	20 f0       	brcs	.+8      	; 0xcf0 <__udivmodsi4_ep>
 ce8:	a2 1b       	sub	r26, r18
 cea:	b3 0b       	sbc	r27, r19
 cec:	e4 0b       	sbc	r30, r20
 cee:	f5 0b       	sbc	r31, r21

00000cf0 <__udivmodsi4_ep>:
 cf0:	66 1f       	adc	r22, r22
 cf2:	77 1f       	adc	r23, r23
 cf4:	88 1f       	adc	r24, r24
 cf6:	99 1f       	adc	r25, r25
 cf8:	1a 94       	dec	r1
 cfa:	69 f7       	brne	.-38     	; 0xcd6 <__udivmodsi4_loop>
 cfc:	60 95       	com	r22
 cfe:	70 95       	com	r23
 d00:	80 95       	com	r24
 d02:	90 95       	com	r25
 d04:	9b 01       	movw	r18, r22
 d06:	ac 01       	movw	r20, r24
 d08:	bd 01       	movw	r22, r26
 d0a:	cf 01       	movw	r24, r30
 d0c:	08 95       	ret

Disassembly of section .text.avrlibc.fplib:

00000986 <__floatunsisf>:
 986:	e8 94       	clt
 988:	09 c0       	rjmp	.+18     	; 0x99c <__floatsisf+0x12>

0000098a <__floatsisf>:
 98a:	97 fb       	bst	r25, 7
 98c:	3e f4       	brtc	.+14     	; 0x99c <__floatsisf+0x12>
 98e:	90 95       	com	r25
 990:	80 95       	com	r24
 992:	70 95       	com	r23
 994:	61 95       	neg	r22
 996:	7f 4f       	sbci	r23, 0xFF	; 255
 998:	8f 4f       	sbci	r24, 0xFF	; 255
 99a:	9f 4f       	sbci	r25, 0xFF	; 255
 99c:	99 23       	and	r25, r25
 99e:	a9 f0       	breq	.+42     	; 0x9ca <__floatsisf+0x40>
 9a0:	f9 2f       	mov	r31, r25
 9a2:	96 e9       	ldi	r25, 0x96	; 150
 9a4:	bb 27       	eor	r27, r27
 9a6:	93 95       	inc	r25
 9a8:	f6 95       	lsr	r31
 9aa:	87 95       	ror	r24
 9ac:	77 95       	ror	r23
 9ae:	67 95       	ror	r22
 9b0:	b7 95       	ror	r27
 9b2:	f1 11       	cpse	r31, r1
 9b4:	f8 cf       	rjmp	.-16     	; 0x9a6 <__floatsisf+0x1c>
 9b6:	fa f4       	brpl	.+62     	; 0x9f6 <__floatsisf+0x6c>
 9b8:	bb 0f       	add	r27, r27
 9ba:	11 f4       	brne	.+4      	; 0x9c0 <__floatsisf+0x36>
 9bc:	60 ff       	sbrs	r22, 0
 9be:	1b c0       	rjmp	.+54     	; 0x9f6 <__floatsisf+0x6c>
 9c0:	6f 5f       	subi	r22, 0xFF	; 255
 9c2:	7f 4f       	sbci	r23, 0xFF	; 255
 9c4:	8f 4f       	sbci	r24, 0xFF	; 255
 9c6:	9f 4f       	sbci	r25, 0xFF	; 255
 9c8:	16 c0       	rjmp	.+44     	; 0x9f6 <__floatsisf+0x6c>
 9ca:	88 23       	and	r24, r24
 9cc:	11 f0       	breq	.+4      	; 0x9d2 <__floatsisf+0x48>
 9ce:	96 e9       	ldi	r25, 0x96	; 150
 9d0:	11 c0       	rjmp	.+34     	; 0x9f4 <__floatsisf+0x6a>
 9d2:	77 23       	and	r23, r23
 9d4:	21 f0       	breq	.+8      	; 0x9de <__floatsisf+0x54>
 9d6:	9e e8       	ldi	r25, 0x8E	; 142
 9d8:	87 2f       	mov	r24, r23
 9da:	76 2f       	mov	r23, r22
 9dc:	05 c0       	rjmp	.+10     	; 0x9e8 <__floatsisf+0x5e>
 9de:	66 23       	and	r22, r22
 9e0:	71 f0       	breq	.+28     	; 0x9fe <__floatsisf+0x74>
 9e2:	96 e8       	ldi	r25, 0x86	; 134
 9e4:	86 2f       	mov	r24, r22
 9e6:	70 e0       	ldi	r23, 0x00	; 0
 9e8:	60 e0       	ldi	r22, 0x00	; 0
 9ea:	2a f0       	brmi	.+10     	; 0x9f6 <__floatsisf+0x6c>
 9ec:	9a 95       	dec	r25
 9ee:	66 0f       	add	r22, r22
 9f0:	77 1f       	adc	r23, r23
 9f2:	88 1f       	adc	r24, r24
 9f4:	da f7       	brpl	.-10     	; 0x9ec <__floatsisf+0x62>
 9f6:	88 0f       	add	r24, r24
 9f8:	96 95       	lsr	r25
 9fa:	87 95       	ror	r24
 9fc:	97 f9       	bld	r25, 7
 9fe:	08 95       	ret

Disassembly of section .text.avrlibc.fplib:

0000118c <__mulsf3>:
    118c:	0e 94 aa 02 	call	0x554	; 0x554 <__mulsf3x>
    1190:	0c 94 df 07 	jmp	0xfbe	; 0xfbe <__fp_round>

Disassembly of section .text.avrlibc.fplib:

00000536 <__mulsf3x-0x1e>:
 536:	0e 94 a0 08 	call	0x1140	; 0x1140 <__fp_pscA>
 53a:	38 f0       	brcs	.+14     	; 0x54a <scan_save_password+0xf2>
 53c:	0e 94 a7 08 	call	0x114e	; 0x114e <__fp_pscB>
 540:	20 f0       	brcs	.+8      	; 0x54a <scan_save_password+0xf2>
 542:	95 23       	and	r25, r21
 544:	11 f0       	breq	.+4      	; 0x54a <scan_save_password+0xf2>
 546:	0c 94 bb 08 	jmp	0x1176	; 0x1176 <__fp_inf>
 54a:	0c 94 ca 08 	jmp	0x1194	; 0x1194 <__fp_nan>
 54e:	11 24       	eor	r1, r1
 550:	0c 94 af 08 	jmp	0x115e	; 0x115e <__fp_szero>

00000554 <__mulsf3x>:
 554:	0e 94 87 06 	call	0xd0e	; 0xd0e <__fp_split3>
 558:	70 f3       	brcs	.-36     	; 0x536 <scan_save_password+0xde>

0000055a <__mulsf3_pse>:
 55a:	95 9f       	mul	r25, r21
 55c:	c1 f3       	breq	.-16     	; 0x54e <scan_save_password+0xf6>
 55e:	95 0f       	add	r25, r21
 560:	50 e0       	ldi	r21, 0x00	; 0
 562:	55 1f       	adc	r21, r21
 564:	62 9f       	mul	r22, r18
 566:	f0 01       	movw	r30, r0
 568:	72 9f       	mul	r23, r18
 56a:	bb 27       	eor	r27, r27
 56c:	f0 0d       	add	r31, r0
 56e:	b1 1d       	adc	r27, r1
 570:	63 9f       	mul	r22, r19
 572:	aa 27       	eor	r26, r26
 574:	f0 0d       	add	r31, r0
 576:	b1 1d       	adc	r27, r1
 578:	aa 1f       	adc	r26, r26
 57a:	64 9f       	mul	r22, r20
 57c:	66 27       	eor	r22, r22
 57e:	b0 0d       	add	r27, r0
 580:	a1 1d       	adc	r26, r1
 582:	66 1f       	adc	r22, r22
 584:	82 9f       	mul	r24, r18
 586:	22 27       	eor	r18, r18
 588:	b0 0d       	add	r27, r0
 58a:	a1 1d       	adc	r26, r1
 58c:	62 1f       	adc	r22, r18
 58e:	73 9f       	mul	r23, r19
 590:	b0 0d       	add	r27, r0
 592:	a1 1d       	adc	r26, r1
 594:	62 1f       	adc	r22, r18
 596:	83 9f       	mul	r24, r19
 598:	a0 0d       	add	r26, r0
 59a:	61 1d       	adc	r22, r1
 59c:	22 1f       	adc	r18, r18
 59e:	74 9f       	mul	r23, r20
 5a0:	33 27       	eor	r19, r19
 5a2:	a0 0d       	add	r26, r0
 5a4:	61 1d       	adc	r22, r1
 5a6:	23 1f       	adc	r18, r19
 5a8:	84 9f       	mul	r24, r20
 5aa:	60 0d       	add	r22, r0
 5ac:	21 1d       	adc	r18, r1
 5ae:	82 2f       	mov	r24, r18
 5b0:	76 2f       	mov	r23, r22
 5b2:	6a 2f       	mov	r22, r26
 5b4:	11 24       	eor	r1, r1
 5b6:	9f 57       	subi	r25, 0x7F	; 127
 5b8:	50 40       	sbci	r21, 0x00	; 0
 5ba:	9a f0       	brmi	.+38     	; 0x5e2 <__mulsf3_pse+0x88>
 5bc:	f1 f0       	breq	.+60     	; 0x5fa <__mulsf3_pse+0xa0>
 5be:	88 23       	and	r24, r24
 5c0:	4a f0       	brmi	.+18     	; 0x5d4 <__mulsf3_pse+0x7a>
 5c2:	ee 0f       	add	r30, r30
 5c4:	ff 1f       	adc	r31, r31
 5c6:	bb 1f       	adc	r27, r27
 5c8:	66 1f       	adc	r22, r22
 5ca:	77 1f       	adc	r23, r23
 5cc:	88 1f       	adc	r24, r24
 5ce:	91 50       	subi	r25, 0x01	; 1
 5d0:	50 40       	sbci	r21, 0x00	; 0
 5d2:	a9 f7       	brne	.-22     	; 0x5be <__mulsf3_pse+0x64>
 5d4:	9e 3f       	cpi	r25, 0xFE	; 254
 5d6:	51 05       	cpc	r21, r1
 5d8:	80 f0       	brcs	.+32     	; 0x5fa <__mulsf3_pse+0xa0>
 5da:	0c 94 bb 08 	jmp	0x1176	; 0x1176 <__fp_inf>
 5de:	0c 94 af 08 	jmp	0x115e	; 0x115e <__fp_szero>
 5e2:	5f 3f       	cpi	r21, 0xFF	; 255
 5e4:	e4 f3       	brlt	.-8      	; 0x5de <__mulsf3_pse+0x84>
 5e6:	98 3e       	cpi	r25, 0xE8	; 232
 5e8:	d4 f3       	brlt	.-12     	; 0x5de <__mulsf3_pse+0x84>
 5ea:	86 95       	lsr	r24
 5ec:	77 95       	ror	r23
 5ee:	67 95       	ror	r22
 5f0:	b7 95       	ror	r27
 5f2:	f7 95       	ror	r31
 5f4:	e7 95       	ror	r30
 5f6:	9f 5f       	subi	r25, 0xFF	; 255
 5f8:	c1 f7       	brne	.-16     	; 0x5ea <__mulsf3_pse+0x90>
 5fa:	fe 2b       	or	r31, r30
 5fc:	88 0f       	add	r24, r24
 5fe:	91 1d       	adc	r25, r1
 600:	96 95       	lsr	r25
 602:	87 95       	ror	r24
 604:	97 f9       	bld	r25, 7
 606:	08 95       	ret

Disassembly of section .text.avrlibc.fplib:

00001176 <__fp_inf>:
    1176:	97 f9       	bld	r25, 7
    1178:	9f 67       	ori	r25, 0x7F	; 127
    117a:	80 e8       	ldi	r24, 0x80	; 128
    117c:	70 e0       	ldi	r23, 0x00	; 0
    117e:	60 e0       	ldi	r22, 0x00	; 0
    1180:	08 95       	ret

Disassembly of section .text.avrlibc.fplib:

00001194 <__fp_nan>:
    1194:	9f ef       	ldi	r25, 0xFF	; 255
    1196:	80 ec       	ldi	r24, 0xC0	; 192
    1198:	08 95       	ret

Disassembly of section .text.avrlibc.fplib:

00001140 <__fp_pscA>:
    1140:	00 24       	eor	r0, r0
    1142:	0a 94       	dec	r0
    1144:	16 16       	cp	r1, r22
    1146:	17 06       	cpc	r1, r23
    1148:	18 06       	cpc	r1, r24
    114a:	09 06       	cpc	r0, r25
    114c:	08 95       	ret

Disassembly of section .text.avrlibc.fplib:

0000114e <__fp_pscB>:
    114e:	00 24       	eor	r0, r0
    1150:	0a 94       	dec	r0
    1152:	12 16       	cp	r1, r18
    1154:	13 06       	cpc	r1, r19
    1156:	14 06       	cpc	r1, r20
    1158:	05 06       	cpc	r0, r21
    115a:	08 95       	ret

Disassembly of section .text.avrlibc.fplib:

00000fbe <__fp_round>:
 fbe:	09 2e       	mov	r0, r25
 fc0:	03 94       	inc	r0
 fc2:	00 0c       	add	r0, r0
 fc4:	11 f4       	brne	.+4      	; 0xfca <__fp_round+0xc>
 fc6:	88 23       	and	r24, r24
 fc8:	52 f0       	brmi	.+20     	; 0xfde <__fp_round+0x20>
 fca:	bb 0f       	add	r27, r27
 fcc:	40 f4       	brcc	.+16     	; 0xfde <__fp_round+0x20>
 fce:	bf 2b       	or	r27, r31
 fd0:	11 f4       	brne	.+4      	; 0xfd6 <__fp_round+0x18>
 fd2:	60 ff       	sbrs	r22, 0
 fd4:	04 c0       	rjmp	.+8      	; 0xfde <__fp_round+0x20>
 fd6:	6f 5f       	subi	r22, 0xFF	; 255
 fd8:	7f 4f       	sbci	r23, 0xFF	; 255
 fda:	8f 4f       	sbci	r24, 0xFF	; 255
 fdc:	9f 4f       	sbci	r25, 0xFF	; 255
 fde:	08 95       	ret

Disassembly of section .text.avrlibc.fplib:

00000d0e <__fp_split3>:
 d0e:	57 fd       	sbrc	r21, 7
 d10:	90 58       	subi	r25, 0x80	; 128
 d12:	44 0f       	add	r20, r20
 d14:	55 1f       	adc	r21, r21
 d16:	59 f0       	breq	.+22     	; 0xd2e <__fp_splitA+0x10>
 d18:	5f 3f       	cpi	r21, 0xFF	; 255
 d1a:	71 f0       	breq	.+28     	; 0xd38 <__fp_splitA+0x1a>
 d1c:	47 95       	ror	r20

00000d1e <__fp_splitA>:
 d1e:	88 0f       	add	r24, r24
 d20:	97 fb       	bst	r25, 7
 d22:	99 1f       	adc	r25, r25
 d24:	61 f0       	breq	.+24     	; 0xd3e <__fp_splitA+0x20>
 d26:	9f 3f       	cpi	r25, 0xFF	; 255
 d28:	79 f0       	breq	.+30     	; 0xd48 <__fp_splitA+0x2a>
 d2a:	87 95       	ror	r24
 d2c:	08 95       	ret
 d2e:	12 16       	cp	r1, r18
 d30:	13 06       	cpc	r1, r19
 d32:	14 06       	cpc	r1, r20
 d34:	55 1f       	adc	r21, r21
 d36:	f2 cf       	rjmp	.-28     	; 0xd1c <__fp_split3+0xe>
 d38:	46 95       	lsr	r20
 d3a:	f1 df       	rcall	.-30     	; 0xd1e <__fp_splitA>
 d3c:	08 c0       	rjmp	.+16     	; 0xd4e <__fp_splitA+0x30>
 d3e:	16 16       	cp	r1, r22
 d40:	17 06       	cpc	r1, r23
 d42:	18 06       	cpc	r1, r24
 d44:	99 1f       	adc	r25, r25
 d46:	f1 cf       	rjmp	.-30     	; 0xd2a <__fp_splitA+0xc>
 d48:	86 95       	lsr	r24
 d4a:	71 05       	cpc	r23, r1
 d4c:	61 05       	cpc	r22, r1
 d4e:	08 94       	sec
 d50:	08 95       	ret

Disassembly of section .text.avrlibc.fplib:

0000115c <__fp_zero>:
    115c:	e8 94       	clt

0000115e <__fp_szero>:
    115e:	bb 27       	eor	r27, r27
    1160:	66 27       	eor	r22, r22
    1162:	77 27       	eor	r23, r23
    1164:	cb 01       	movw	r24, r22
    1166:	97 f9       	bld	r25, 7
    1168:	08 95       	ret
